

Microchip MPLAB XC8 Assembler V2.32 build 20210201212658 
                                                                                               Wed Jul 28 12:07:52 2021

Microchip MPLAB XC8 C Compiler v2.32 (Free license) build 20210201212658 Og1 
     1                           	processor	16LF1829
     2                           	pagewidth 120
     3                           	opt	flic
     4                           	psect	stringtext1,global,class=STRCODE,delta=2,noexec
     5                           	psect	nvCOMMON,global,class=COMMON,space=1,delta=1,noexec
     6                           	psect	cinit,global,class=CODE,merge=1,delta=2
     7                           	psect	bssBANK0,global,class=BANK0,space=1,delta=1,noexec
     8                           	psect	clrtext,global,class=CODE,delta=2
     9                           	psect	cstackCOMMON,global,class=COMMON,space=1,delta=1,noexec
    10                           	psect	cstackBANK0,global,class=BANK0,space=1,delta=1,noexec
    11                           	psect	maintext,global,class=CODE,merge=1,split=1,delta=2
    12                           	psect	text1,local,class=CODE,merge=1,delta=2
    13                           	psect	text2,local,class=CODE,merge=1,delta=2
    14                           	psect	text3,local,class=CODE,merge=1,delta=2
    15                           	psect	text4,local,class=CODE,merge=1,delta=2
    16                           	psect	text5,local,class=CODE,merge=1,delta=2
    17                           	psect	text6,local,class=CODE,merge=1,delta=2
    18                           	psect	text7,local,class=CODE,merge=1,delta=2
    19                           	psect	text8,local,class=CODE,merge=1,delta=2
    20                           	psect	text9,local,class=CODE,merge=1,delta=2
    21                           	psect	text10,local,class=CODE,merge=1,delta=2
    22                           	psect	text11,local,class=CODE,merge=1,delta=2
    23                           	psect	text12,local,class=CODE,merge=1,delta=2
    24                           	psect	text13,local,class=CODE,merge=1,delta=2
    25                           	psect	text14,local,class=CODE,merge=1,delta=2
    26                           	psect	text15,local,class=CODE,merge=1,delta=2
    27                           	psect	text16,local,class=CODE,merge=1,inline,delta=2
    28                           	psect	text17,local,class=CODE,merge=1,delta=2
    29                           	psect	text18,local,class=CODE,merge=1,delta=2
    30                           	psect	text19,local,class=CODE,merge=1,delta=2
    31                           	psect	text20,local,class=CODE,merge=1,inline,delta=2
    32                           	psect	text21,local,class=CODE,merge=1,inline,delta=2
    33                           	psect	text22,local,class=CODE,merge=1,delta=2
    34                           	psect	text23,local,class=CODE,merge=1,delta=2
    35                           	psect	text24,local,class=CODE,merge=1,delta=2
    36                           	psect	text25,local,class=CODE,merge=1,delta=2
    37                           	psect	text26,local,class=CODE,merge=1,delta=2
    38                           	psect	text27,local,class=CODE,merge=1,delta=2
    39                           	psect	text28,local,class=CODE,merge=1,delta=2
    40                           	psect	text29,local,class=CODE,merge=1,delta=2
    41                           	psect	text30,local,class=CODE,merge=1,delta=2
    42                           	psect	text31,local,class=CODE,merge=1,delta=2
    43                           	psect	text32,local,class=CODE,merge=1,delta=2
    44                           	psect	text33,local,class=CODE,merge=1,delta=2
    45                           	psect	text34,local,class=CODE,merge=1,delta=2
    46                           	psect	text35,local,class=CODE,merge=1,delta=2
    47                           	psect	text36,local,class=CODE,merge=1,delta=2
    48                           	psect	text37,local,class=CODE,merge=1,delta=2
    49                           	psect	text38,local,class=CODE,merge=1,inline,delta=2
    50                           	psect	text39,local,class=CODE,merge=1,inline,delta=2
    51                           	psect	text40,local,class=CODE,merge=1,inline,delta=2
    52                           	psect	text41,local,class=CODE,merge=1,inline,delta=2
    53                           	psect	text42,local,class=CODE,merge=1,inline,delta=2
    54                           	psect	text43,local,class=CODE,merge=1,inline,delta=2
    55                           	psect	text44,local,class=CODE,merge=1,inline,delta=2
    56                           	psect	text45,local,class=CODE,merge=1,delta=2
    57                           	psect	text46,local,class=CODE,merge=1,delta=2
    58                           	psect	text47,local,class=CODE,merge=1,delta=2
    59                           	psect	text48,local,class=CODE,merge=1,delta=2
    60                           	psect	text49,local,class=CODE,merge=1,delta=2
    61                           	psect	text50,local,class=CODE,merge=1,delta=2
    62                           	psect	text51,local,class=CODE,merge=1,delta=2
    63                           	psect	text52,local,class=CODE,merge=1,delta=2
    64                           	psect	text53,local,class=CODE,merge=1,delta=2
    65                           	psect	text54,local,class=CODE,merge=1,delta=2
    66                           	psect	text55,local,class=CODE,merge=1,delta=2
    67                           	psect	text56,local,class=CODE,merge=1,delta=2
    68                           	psect	text57,local,class=CODE,merge=1,delta=2
    69                           	psect	text58,local,class=CODE,merge=1,delta=2
    70                           	psect	text59,local,class=CODE,merge=1,delta=2
    71                           	psect	text60,local,class=CODE,merge=1,inline,delta=2
    72                           	psect	text61,local,class=CODE,merge=1,inline,delta=2
    73                           	psect	text62,local,class=CODE,merge=1,inline,delta=2
    74                           	psect	text63,local,class=CODE,merge=1,delta=2
    75                           	psect	text64,local,class=CODE,merge=1,inline,delta=2
    76                           	psect	text65,local,class=CODE,merge=1,inline,delta=2
    77                           	psect	text66,local,class=CODE,merge=1,inline,delta=2
    78                           	psect	text67,local,class=CODE,merge=1,delta=2
    79                           	psect	text68,local,class=CODE,merge=1,delta=2
    80                           	psect	text69,local,class=CODE,merge=1,delta=2
    81                           	psect	intentry,global,class=CODE,delta=2
    82                           	psect	text71,local,class=CODE,merge=1,delta=2
    83                           	psect	text72,local,class=CODE,merge=1,delta=2
    84                           	psect	text73,local,class=CODE,merge=1,delta=2
    85                           	psect	text74,local,class=CODE,merge=1,delta=2
    86                           	psect	text75,local,class=CODE,merge=1,delta=2
    87                           	psect	text76,local,class=CODE,merge=1,delta=2
    88                           	psect	text77,local,class=CODE,merge=1,delta=2
    89                           	psect	text78,local,class=CODE,merge=1,delta=2
    90                           	psect	config,global,abs,ovrld,class=CONFIG,space=4,delta=2,noexec
    91                           	dabs	1,0x7E,2
    92  0000                     
    93                           ; Version 2.20
    94                           ; Generated 12/02/2020 GMT
    95                           ; 
    96                           ; Copyright © 2020, Microchip Technology Inc. and its subsidiaries ("Microchip")
    97                           ; All rights reserved.
    98                           ; 
    99                           ; This software is developed by Microchip Technology Inc. and its subsidiaries ("Microch
      +                          ip").
   100                           ; 
   101                           ; Redistribution and use in source and binary forms, with or without modification, are
   102                           ; permitted provided that the following conditions are met:
   103                           ; 
   104                           ;     1. Redistributions of source code must retain the above copyright notice, this lis
      +                          t of
   105                           ;        conditions and the following disclaimer.
   106                           ; 
   107                           ;     2. Redistributions in binary form must reproduce the above copyright notice, this 
      +                          list
   108                           ;        of conditions and the following disclaimer in the documentation and/or other
   109                           ;        materials provided with the distribution.
   110                           ; 
   111                           ;     3. Microchip's name may not be used to endorse or promote products derived from th
      +                          is
   112                           ;        software without specific prior written permission.
   113                           ; 
   114                           ; THIS SOFTWARE IS PROVIDED BY MICROCHIP "AS IS" AND ANY EXPRESS OR IMPLIED WARRANTIES,
   115                           ; INCLUDING, BUT NOT LIMITED TO, THE IMPLIED WARRANTIES OF MERCHANTABILITY AND FITNESS F
      +                          OR
   116                           ; PURPOSE ARE DISCLAIMED.  IN NO EVENT SHALL MICROCHIP BE LIABLE FOR ANY DIRECT, INDIREC
      +                          T,
   117                           ; INCIDENTAL, SPECIAL, EXEMPLARY, OR CONSEQUENTIAL DAMAGES (INCLUDING BUT NOT LIMITED TO
   118                           ; PROCUREMENT OF SUBSTITUTE GOODS OR SERVICES; LOSS OF USE, DATA OR PROFITS; OR BUSINESS
   119                           ; INTERRUPTION) HOWSOEVER CAUSED AND ON ANY THEORY OF LIABILITY, WHETHER IN CONTRACT, ST
      +                          RICT
   120                           ; LIABILITY, OR TORT (INCLUDING NEGLIGENCE OR OTHERWISE) ARISING IN ANY WAY OUT OF THE U
      +                          SE OF
   121                           ; THIS SOFTWARE, EVEN IF ADVISED OF THE POSSIBILITY OF SUCH DAMAGE.
   122                           ; 
   123                           ; 
   124                           ; Code-generator required, PIC16LF1829 Definitions
   125                           ; 
   126                           ; SFR Addresses
   127  0000                     	;# 
   128  0001                     	;# 
   129  0002                     	;# 
   130  0003                     	;# 
   131  0004                     	;# 
   132  0005                     	;# 
   133  0006                     	;# 
   134  0007                     	;# 
   135  0008                     	;# 
   136  0009                     	;# 
   137  000A                     	;# 
   138  000B                     	;# 
   139  000C                     	;# 
   140  000D                     	;# 
   141  000E                     	;# 
   142  0011                     	;# 
   143  0012                     	;# 
   144  0013                     	;# 
   145  0014                     	;# 
   146  0015                     	;# 
   147  0016                     	;# 
   148  0016                     	;# 
   149  0017                     	;# 
   150  0018                     	;# 
   151  0019                     	;# 
   152  001A                     	;# 
   153  001B                     	;# 
   154  001C                     	;# 
   155  001E                     	;# 
   156  001F                     	;# 
   157  008C                     	;# 
   158  008D                     	;# 
   159  008E                     	;# 
   160  0091                     	;# 
   161  0092                     	;# 
   162  0093                     	;# 
   163  0094                     	;# 
   164  0095                     	;# 
   165  0096                     	;# 
   166  0097                     	;# 
   167  0098                     	;# 
   168  0099                     	;# 
   169  009A                     	;# 
   170  009B                     	;# 
   171  009B                     	;# 
   172  009C                     	;# 
   173  009D                     	;# 
   174  009E                     	;# 
   175  010C                     	;# 
   176  010D                     	;# 
   177  010E                     	;# 
   178  0111                     	;# 
   179  0112                     	;# 
   180  0113                     	;# 
   181  0114                     	;# 
   182  0115                     	;# 
   183  0116                     	;# 
   184  0117                     	;# 
   185  0118                     	;# 
   186  0119                     	;# 
   187  011A                     	;# 
   188  011B                     	;# 
   189  011D                     	;# 
   190  011E                     	;# 
   191  018C                     	;# 
   192  018D                     	;# 
   193  018E                     	;# 
   194  0191                     	;# 
   195  0191                     	;# 
   196  0192                     	;# 
   197  0193                     	;# 
   198  0193                     	;# 
   199  0193                     	;# 
   200  0194                     	;# 
   201  0195                     	;# 
   202  0196                     	;# 
   203  0199                     	;# 
   204  019A                     	;# 
   205  019B                     	;# 
   206  019B                     	;# 
   207  019B                     	;# 
   208  019B                     	;# 
   209  019C                     	;# 
   210  019C                     	;# 
   211  019D                     	;# 
   212  019E                     	;# 
   213  019F                     	;# 
   214  020C                     	;# 
   215  020D                     	;# 
   216  020E                     	;# 
   217  0211                     	;# 
   218  0211                     	;# 
   219  0212                     	;# 
   220  0212                     	;# 
   221  0213                     	;# 
   222  0213                     	;# 
   223  0214                     	;# 
   224  0214                     	;# 
   225  0215                     	;# 
   226  0215                     	;# 
   227  0215                     	;# 
   228  0216                     	;# 
   229  0216                     	;# 
   230  0217                     	;# 
   231  0217                     	;# 
   232  0219                     	;# 
   233  021A                     	;# 
   234  021B                     	;# 
   235  021C                     	;# 
   236  021D                     	;# 
   237  021E                     	;# 
   238  021F                     	;# 
   239  0291                     	;# 
   240  0291                     	;# 
   241  0292                     	;# 
   242  0293                     	;# 
   243  0294                     	;# 
   244  0295                     	;# 
   245  0295                     	;# 
   246  0296                     	;# 
   247  0298                     	;# 
   248  0298                     	;# 
   249  0299                     	;# 
   250  029A                     	;# 
   251  029B                     	;# 
   252  029C                     	;# 
   253  029D                     	;# 
   254  029E                     	;# 
   255  0311                     	;# 
   256  0311                     	;# 
   257  0312                     	;# 
   258  0313                     	;# 
   259  0318                     	;# 
   260  0318                     	;# 
   261  0319                     	;# 
   262  031A                     	;# 
   263  038C                     	;# 
   264  038D                     	;# 
   265  038E                     	;# 
   266  0391                     	;# 
   267  0392                     	;# 
   268  0393                     	;# 
   269  0394                     	;# 
   270  0395                     	;# 
   271  0396                     	;# 
   272  039A                     	;# 
   273  039C                     	;# 
   274  039D                     	;# 
   275  039E                     	;# 
   276  039F                     	;# 
   277  0415                     	;# 
   278  0416                     	;# 
   279  0417                     	;# 
   280  041C                     	;# 
   281  041D                     	;# 
   282  041E                     	;# 
   283  0FE4                     	;# 
   284  0FE5                     	;# 
   285  0FE6                     	;# 
   286  0FE7                     	;# 
   287  0FE8                     	;# 
   288  0FE9                     	;# 
   289  0FEA                     	;# 
   290  0FEB                     	;# 
   291  0FED                     	;# 
   292  0FEE                     	;# 
   293  0FEF                     	;# 
   294  0000                     	;# 
   295  0001                     	;# 
   296  0002                     	;# 
   297  0003                     	;# 
   298  0004                     	;# 
   299  0005                     	;# 
   300  0006                     	;# 
   301  0007                     	;# 
   302  0008                     	;# 
   303  0009                     	;# 
   304  000A                     	;# 
   305  000B                     	;# 
   306  000C                     	;# 
   307  000D                     	;# 
   308  000E                     	;# 
   309  0011                     	;# 
   310  0012                     	;# 
   311  0013                     	;# 
   312  0014                     	;# 
   313  0015                     	;# 
   314  0016                     	;# 
   315  0016                     	;# 
   316  0017                     	;# 
   317  0018                     	;# 
   318  0019                     	;# 
   319  001A                     	;# 
   320  001B                     	;# 
   321  001C                     	;# 
   322  001E                     	;# 
   323  001F                     	;# 
   324  008C                     	;# 
   325  008D                     	;# 
   326  008E                     	;# 
   327  0091                     	;# 
   328  0092                     	;# 
   329  0093                     	;# 
   330  0094                     	;# 
   331  0095                     	;# 
   332  0096                     	;# 
   333  0097                     	;# 
   334  0098                     	;# 
   335  0099                     	;# 
   336  009A                     	;# 
   337  009B                     	;# 
   338  009B                     	;# 
   339  009C                     	;# 
   340  009D                     	;# 
   341  009E                     	;# 
   342  010C                     	;# 
   343  010D                     	;# 
   344  010E                     	;# 
   345  0111                     	;# 
   346  0112                     	;# 
   347  0113                     	;# 
   348  0114                     	;# 
   349  0115                     	;# 
   350  0116                     	;# 
   351  0117                     	;# 
   352  0118                     	;# 
   353  0119                     	;# 
   354  011A                     	;# 
   355  011B                     	;# 
   356  011D                     	;# 
   357  011E                     	;# 
   358  018C                     	;# 
   359  018D                     	;# 
   360  018E                     	;# 
   361  0191                     	;# 
   362  0191                     	;# 
   363  0192                     	;# 
   364  0193                     	;# 
   365  0193                     	;# 
   366  0193                     	;# 
   367  0194                     	;# 
   368  0195                     	;# 
   369  0196                     	;# 
   370  0199                     	;# 
   371  019A                     	;# 
   372  019B                     	;# 
   373  019B                     	;# 
   374  019B                     	;# 
   375  019B                     	;# 
   376  019C                     	;# 
   377  019C                     	;# 
   378  019D                     	;# 
   379  019E                     	;# 
   380  019F                     	;# 
   381  020C                     	;# 
   382  020D                     	;# 
   383  020E                     	;# 
   384  0211                     	;# 
   385  0211                     	;# 
   386  0212                     	;# 
   387  0212                     	;# 
   388  0213                     	;# 
   389  0213                     	;# 
   390  0214                     	;# 
   391  0214                     	;# 
   392  0215                     	;# 
   393  0215                     	;# 
   394  0215                     	;# 
   395  0216                     	;# 
   396  0216                     	;# 
   397  0217                     	;# 
   398  0217                     	;# 
   399  0219                     	;# 
   400  021A                     	;# 
   401  021B                     	;# 
   402  021C                     	;# 
   403  021D                     	;# 
   404  021E                     	;# 
   405  021F                     	;# 
   406  0291                     	;# 
   407  0291                     	;# 
   408  0292                     	;# 
   409  0293                     	;# 
   410  0294                     	;# 
   411  0295                     	;# 
   412  0295                     	;# 
   413  0296                     	;# 
   414  0298                     	;# 
   415  0298                     	;# 
   416  0299                     	;# 
   417  029A                     	;# 
   418  029B                     	;# 
   419  029C                     	;# 
   420  029D                     	;# 
   421  029E                     	;# 
   422  0311                     	;# 
   423  0311                     	;# 
   424  0312                     	;# 
   425  0313                     	;# 
   426  0318                     	;# 
   427  0318                     	;# 
   428  0319                     	;# 
   429  031A                     	;# 
   430  038C                     	;# 
   431  038D                     	;# 
   432  038E                     	;# 
   433  0391                     	;# 
   434  0392                     	;# 
   435  0393                     	;# 
   436  0394                     	;# 
   437  0395                     	;# 
   438  0396                     	;# 
   439  039A                     	;# 
   440  039C                     	;# 
   441  039D                     	;# 
   442  039E                     	;# 
   443  039F                     	;# 
   444  0415                     	;# 
   445  0416                     	;# 
   446  0417                     	;# 
   447  041C                     	;# 
   448  041D                     	;# 
   449  041E                     	;# 
   450  0FE4                     	;# 
   451  0FE5                     	;# 
   452  0FE6                     	;# 
   453  0FE7                     	;# 
   454  0FE8                     	;# 
   455  0FE9                     	;# 
   456  0FEA                     	;# 
   457  0FEB                     	;# 
   458  0FED                     	;# 
   459  0FEE                     	;# 
   460  0FEF                     	;# 
   461  0000                     	;# 
   462  0001                     	;# 
   463  0002                     	;# 
   464  0003                     	;# 
   465  0004                     	;# 
   466  0005                     	;# 
   467  0006                     	;# 
   468  0007                     	;# 
   469  0008                     	;# 
   470  0009                     	;# 
   471  000A                     	;# 
   472  000B                     	;# 
   473  000C                     	;# 
   474  000D                     	;# 
   475  000E                     	;# 
   476  0011                     	;# 
   477  0012                     	;# 
   478  0013                     	;# 
   479  0014                     	;# 
   480  0015                     	;# 
   481  0016                     	;# 
   482  0016                     	;# 
   483  0017                     	;# 
   484  0018                     	;# 
   485  0019                     	;# 
   486  001A                     	;# 
   487  001B                     	;# 
   488  001C                     	;# 
   489  001E                     	;# 
   490  001F                     	;# 
   491  008C                     	;# 
   492  008D                     	;# 
   493  008E                     	;# 
   494  0091                     	;# 
   495  0092                     	;# 
   496  0093                     	;# 
   497  0094                     	;# 
   498  0095                     	;# 
   499  0096                     	;# 
   500  0097                     	;# 
   501  0098                     	;# 
   502  0099                     	;# 
   503  009A                     	;# 
   504  009B                     	;# 
   505  009B                     	;# 
   506  009C                     	;# 
   507  009D                     	;# 
   508  009E                     	;# 
   509  010C                     	;# 
   510  010D                     	;# 
   511  010E                     	;# 
   512  0111                     	;# 
   513  0112                     	;# 
   514  0113                     	;# 
   515  0114                     	;# 
   516  0115                     	;# 
   517  0116                     	;# 
   518  0117                     	;# 
   519  0118                     	;# 
   520  0119                     	;# 
   521  011A                     	;# 
   522  011B                     	;# 
   523  011D                     	;# 
   524  011E                     	;# 
   525  018C                     	;# 
   526  018D                     	;# 
   527  018E                     	;# 
   528  0191                     	;# 
   529  0191                     	;# 
   530  0192                     	;# 
   531  0193                     	;# 
   532  0193                     	;# 
   533  0193                     	;# 
   534  0194                     	;# 
   535  0195                     	;# 
   536  0196                     	;# 
   537  0199                     	;# 
   538  019A                     	;# 
   539  019B                     	;# 
   540  019B                     	;# 
   541  019B                     	;# 
   542  019B                     	;# 
   543  019C                     	;# 
   544  019C                     	;# 
   545  019D                     	;# 
   546  019E                     	;# 
   547  019F                     	;# 
   548  020C                     	;# 
   549  020D                     	;# 
   550  020E                     	;# 
   551  0211                     	;# 
   552  0211                     	;# 
   553  0212                     	;# 
   554  0212                     	;# 
   555  0213                     	;# 
   556  0213                     	;# 
   557  0214                     	;# 
   558  0214                     	;# 
   559  0215                     	;# 
   560  0215                     	;# 
   561  0215                     	;# 
   562  0216                     	;# 
   563  0216                     	;# 
   564  0217                     	;# 
   565  0217                     	;# 
   566  0219                     	;# 
   567  021A                     	;# 
   568  021B                     	;# 
   569  021C                     	;# 
   570  021D                     	;# 
   571  021E                     	;# 
   572  021F                     	;# 
   573  0291                     	;# 
   574  0291                     	;# 
   575  0292                     	;# 
   576  0293                     	;# 
   577  0294                     	;# 
   578  0295                     	;# 
   579  0295                     	;# 
   580  0296                     	;# 
   581  0298                     	;# 
   582  0298                     	;# 
   583  0299                     	;# 
   584  029A                     	;# 
   585  029B                     	;# 
   586  029C                     	;# 
   587  029D                     	;# 
   588  029E                     	;# 
   589  0311                     	;# 
   590  0311                     	;# 
   591  0312                     	;# 
   592  0313                     	;# 
   593  0318                     	;# 
   594  0318                     	;# 
   595  0319                     	;# 
   596  031A                     	;# 
   597  038C                     	;# 
   598  038D                     	;# 
   599  038E                     	;# 
   600  0391                     	;# 
   601  0392                     	;# 
   602  0393                     	;# 
   603  0394                     	;# 
   604  0395                     	;# 
   605  0396                     	;# 
   606  039A                     	;# 
   607  039C                     	;# 
   608  039D                     	;# 
   609  039E                     	;# 
   610  039F                     	;# 
   611  0415                     	;# 
   612  0416                     	;# 
   613  0417                     	;# 
   614  041C                     	;# 
   615  041D                     	;# 
   616  041E                     	;# 
   617  0FE4                     	;# 
   618  0FE5                     	;# 
   619  0FE6                     	;# 
   620  0FE7                     	;# 
   621  0FE8                     	;# 
   622  0FE9                     	;# 
   623  0FEA                     	;# 
   624  0FEB                     	;# 
   625  0FED                     	;# 
   626  0FEE                     	;# 
   627  0FEF                     	;# 
   628  0000                     	;# 
   629  0001                     	;# 
   630  0002                     	;# 
   631  0003                     	;# 
   632  0004                     	;# 
   633  0005                     	;# 
   634  0006                     	;# 
   635  0007                     	;# 
   636  0008                     	;# 
   637  0009                     	;# 
   638  000A                     	;# 
   639  000B                     	;# 
   640  000C                     	;# 
   641  000D                     	;# 
   642  000E                     	;# 
   643  0011                     	;# 
   644  0012                     	;# 
   645  0013                     	;# 
   646  0014                     	;# 
   647  0015                     	;# 
   648  0016                     	;# 
   649  0016                     	;# 
   650  0017                     	;# 
   651  0018                     	;# 
   652  0019                     	;# 
   653  001A                     	;# 
   654  001B                     	;# 
   655  001C                     	;# 
   656  001E                     	;# 
   657  001F                     	;# 
   658  008C                     	;# 
   659  008D                     	;# 
   660  008E                     	;# 
   661  0091                     	;# 
   662  0092                     	;# 
   663  0093                     	;# 
   664  0094                     	;# 
   665  0095                     	;# 
   666  0096                     	;# 
   667  0097                     	;# 
   668  0098                     	;# 
   669  0099                     	;# 
   670  009A                     	;# 
   671  009B                     	;# 
   672  009B                     	;# 
   673  009C                     	;# 
   674  009D                     	;# 
   675  009E                     	;# 
   676  010C                     	;# 
   677  010D                     	;# 
   678  010E                     	;# 
   679  0111                     	;# 
   680  0112                     	;# 
   681  0113                     	;# 
   682  0114                     	;# 
   683  0115                     	;# 
   684  0116                     	;# 
   685  0117                     	;# 
   686  0118                     	;# 
   687  0119                     	;# 
   688  011A                     	;# 
   689  011B                     	;# 
   690  011D                     	;# 
   691  011E                     	;# 
   692  018C                     	;# 
   693  018D                     	;# 
   694  018E                     	;# 
   695  0191                     	;# 
   696  0191                     	;# 
   697  0192                     	;# 
   698  0193                     	;# 
   699  0193                     	;# 
   700  0193                     	;# 
   701  0194                     	;# 
   702  0195                     	;# 
   703  0196                     	;# 
   704  0199                     	;# 
   705  019A                     	;# 
   706  019B                     	;# 
   707  019B                     	;# 
   708  019B                     	;# 
   709  019B                     	;# 
   710  019C                     	;# 
   711  019C                     	;# 
   712  019D                     	;# 
   713  019E                     	;# 
   714  019F                     	;# 
   715  020C                     	;# 
   716  020D                     	;# 
   717  020E                     	;# 
   718  0211                     	;# 
   719  0211                     	;# 
   720  0212                     	;# 
   721  0212                     	;# 
   722  0213                     	;# 
   723  0213                     	;# 
   724  0214                     	;# 
   725  0214                     	;# 
   726  0215                     	;# 
   727  0215                     	;# 
   728  0215                     	;# 
   729  0216                     	;# 
   730  0216                     	;# 
   731  0217                     	;# 
   732  0217                     	;# 
   733  0219                     	;# 
   734  021A                     	;# 
   735  021B                     	;# 
   736  021C                     	;# 
   737  021D                     	;# 
   738  021E                     	;# 
   739  021F                     	;# 
   740  0291                     	;# 
   741  0291                     	;# 
   742  0292                     	;# 
   743  0293                     	;# 
   744  0294                     	;# 
   745  0295                     	;# 
   746  0295                     	;# 
   747  0296                     	;# 
   748  0298                     	;# 
   749  0298                     	;# 
   750  0299                     	;# 
   751  029A                     	;# 
   752  029B                     	;# 
   753  029C                     	;# 
   754  029D                     	;# 
   755  029E                     	;# 
   756  0311                     	;# 
   757  0311                     	;# 
   758  0312                     	;# 
   759  0313                     	;# 
   760  0318                     	;# 
   761  0318                     	;# 
   762  0319                     	;# 
   763  031A                     	;# 
   764  038C                     	;# 
   765  038D                     	;# 
   766  038E                     	;# 
   767  0391                     	;# 
   768  0392                     	;# 
   769  0393                     	;# 
   770  0394                     	;# 
   771  0395                     	;# 
   772  0396                     	;# 
   773  039A                     	;# 
   774  039C                     	;# 
   775  039D                     	;# 
   776  039E                     	;# 
   777  039F                     	;# 
   778  0415                     	;# 
   779  0416                     	;# 
   780  0417                     	;# 
   781  041C                     	;# 
   782  041D                     	;# 
   783  041E                     	;# 
   784  0FE4                     	;# 
   785  0FE5                     	;# 
   786  0FE6                     	;# 
   787  0FE7                     	;# 
   788  0FE8                     	;# 
   789  0FE9                     	;# 
   790  0FEA                     	;# 
   791  0FEB                     	;# 
   792  0FED                     	;# 
   793  0FEE                     	;# 
   794  0FEF                     	;# 
   795  0000                     	;# 
   796  0001                     	;# 
   797  0002                     	;# 
   798  0003                     	;# 
   799  0004                     	;# 
   800  0005                     	;# 
   801  0006                     	;# 
   802  0007                     	;# 
   803  0008                     	;# 
   804  0009                     	;# 
   805  000A                     	;# 
   806  000B                     	;# 
   807  000C                     	;# 
   808  000D                     	;# 
   809  000E                     	;# 
   810  0011                     	;# 
   811  0012                     	;# 
   812  0013                     	;# 
   813  0014                     	;# 
   814  0015                     	;# 
   815  0016                     	;# 
   816  0016                     	;# 
   817  0017                     	;# 
   818  0018                     	;# 
   819  0019                     	;# 
   820  001A                     	;# 
   821  001B                     	;# 
   822  001C                     	;# 
   823  001E                     	;# 
   824  001F                     	;# 
   825  008C                     	;# 
   826  008D                     	;# 
   827  008E                     	;# 
   828  0091                     	;# 
   829  0092                     	;# 
   830  0093                     	;# 
   831  0094                     	;# 
   832  0095                     	;# 
   833  0096                     	;# 
   834  0097                     	;# 
   835  0098                     	;# 
   836  0099                     	;# 
   837  009A                     	;# 
   838  009B                     	;# 
   839  009B                     	;# 
   840  009C                     	;# 
   841  009D                     	;# 
   842  009E                     	;# 
   843  010C                     	;# 
   844  010D                     	;# 
   845  010E                     	;# 
   846  0111                     	;# 
   847  0112                     	;# 
   848  0113                     	;# 
   849  0114                     	;# 
   850  0115                     	;# 
   851  0116                     	;# 
   852  0117                     	;# 
   853  0118                     	;# 
   854  0119                     	;# 
   855  011A                     	;# 
   856  011B                     	;# 
   857  011D                     	;# 
   858  011E                     	;# 
   859  018C                     	;# 
   860  018D                     	;# 
   861  018E                     	;# 
   862  0191                     	;# 
   863  0191                     	;# 
   864  0192                     	;# 
   865  0193                     	;# 
   866  0193                     	;# 
   867  0193                     	;# 
   868  0194                     	;# 
   869  0195                     	;# 
   870  0196                     	;# 
   871  0199                     	;# 
   872  019A                     	;# 
   873  019B                     	;# 
   874  019B                     	;# 
   875  019B                     	;# 
   876  019B                     	;# 
   877  019C                     	;# 
   878  019C                     	;# 
   879  019D                     	;# 
   880  019E                     	;# 
   881  019F                     	;# 
   882  020C                     	;# 
   883  020D                     	;# 
   884  020E                     	;# 
   885  0211                     	;# 
   886  0211                     	;# 
   887  0212                     	;# 
   888  0212                     	;# 
   889  0213                     	;# 
   890  0213                     	;# 
   891  0214                     	;# 
   892  0214                     	;# 
   893  0215                     	;# 
   894  0215                     	;# 
   895  0215                     	;# 
   896  0216                     	;# 
   897  0216                     	;# 
   898  0217                     	;# 
   899  0217                     	;# 
   900  0219                     	;# 
   901  021A                     	;# 
   902  021B                     	;# 
   903  021C                     	;# 
   904  021D                     	;# 
   905  021E                     	;# 
   906  021F                     	;# 
   907  0291                     	;# 
   908  0291                     	;# 
   909  0292                     	;# 
   910  0293                     	;# 
   911  0294                     	;# 
   912  0295                     	;# 
   913  0295                     	;# 
   914  0296                     	;# 
   915  0298                     	;# 
   916  0298                     	;# 
   917  0299                     	;# 
   918  029A                     	;# 
   919  029B                     	;# 
   920  029C                     	;# 
   921  029D                     	;# 
   922  029E                     	;# 
   923  0311                     	;# 
   924  0311                     	;# 
   925  0312                     	;# 
   926  0313                     	;# 
   927  0318                     	;# 
   928  0318                     	;# 
   929  0319                     	;# 
   930  031A                     	;# 
   931  038C                     	;# 
   932  038D                     	;# 
   933  038E                     	;# 
   934  0391                     	;# 
   935  0392                     	;# 
   936  0393                     	;# 
   937  0394                     	;# 
   938  0395                     	;# 
   939  0396                     	;# 
   940  039A                     	;# 
   941  039C                     	;# 
   942  039D                     	;# 
   943  039E                     	;# 
   944  039F                     	;# 
   945  0415                     	;# 
   946  0416                     	;# 
   947  0417                     	;# 
   948  041C                     	;# 
   949  041D                     	;# 
   950  041E                     	;# 
   951  0FE4                     	;# 
   952  0FE5                     	;# 
   953  0FE6                     	;# 
   954  0FE7                     	;# 
   955  0FE8                     	;# 
   956  0FE9                     	;# 
   957  0FEA                     	;# 
   958  0FEB                     	;# 
   959  0FED                     	;# 
   960  0FEE                     	;# 
   961  0FEF                     	;# 
   962  0000                     	;# 
   963  0001                     	;# 
   964  0002                     	;# 
   965  0003                     	;# 
   966  0004                     	;# 
   967  0005                     	;# 
   968  0006                     	;# 
   969  0007                     	;# 
   970  0008                     	;# 
   971  0009                     	;# 
   972  000A                     	;# 
   973  000B                     	;# 
   974  000C                     	;# 
   975  000D                     	;# 
   976  000E                     	;# 
   977  0011                     	;# 
   978  0012                     	;# 
   979  0013                     	;# 
   980  0014                     	;# 
   981  0015                     	;# 
   982  0016                     	;# 
   983  0016                     	;# 
   984  0017                     	;# 
   985  0018                     	;# 
   986  0019                     	;# 
   987  001A                     	;# 
   988  001B                     	;# 
   989  001C                     	;# 
   990  001E                     	;# 
   991  001F                     	;# 
   992  008C                     	;# 
   993  008D                     	;# 
   994  008E                     	;# 
   995  0091                     	;# 
   996  0092                     	;# 
   997  0093                     	;# 
   998  0094                     	;# 
   999  0095                     	;# 
  1000  0096                     	;# 
  1001  0097                     	;# 
  1002  0098                     	;# 
  1003  0099                     	;# 
  1004  009A                     	;# 
  1005  009B                     	;# 
  1006  009B                     	;# 
  1007  009C                     	;# 
  1008  009D                     	;# 
  1009  009E                     	;# 
  1010  010C                     	;# 
  1011  010D                     	;# 
  1012  010E                     	;# 
  1013  0111                     	;# 
  1014  0112                     	;# 
  1015  0113                     	;# 
  1016  0114                     	;# 
  1017  0115                     	;# 
  1018  0116                     	;# 
  1019  0117                     	;# 
  1020  0118                     	;# 
  1021  0119                     	;# 
  1022  011A                     	;# 
  1023  011B                     	;# 
  1024  011D                     	;# 
  1025  011E                     	;# 
  1026  018C                     	;# 
  1027  018D                     	;# 
  1028  018E                     	;# 
  1029  0191                     	;# 
  1030  0191                     	;# 
  1031  0192                     	;# 
  1032  0193                     	;# 
  1033  0193                     	;# 
  1034  0193                     	;# 
  1035  0194                     	;# 
  1036  0195                     	;# 
  1037  0196                     	;# 
  1038  0199                     	;# 
  1039  019A                     	;# 
  1040  019B                     	;# 
  1041  019B                     	;# 
  1042  019B                     	;# 
  1043  019B                     	;# 
  1044  019C                     	;# 
  1045  019C                     	;# 
  1046  019D                     	;# 
  1047  019E                     	;# 
  1048  019F                     	;# 
  1049  020C                     	;# 
  1050  020D                     	;# 
  1051  020E                     	;# 
  1052  0211                     	;# 
  1053  0211                     	;# 
  1054  0212                     	;# 
  1055  0212                     	;# 
  1056  0213                     	;# 
  1057  0213                     	;# 
  1058  0214                     	;# 
  1059  0214                     	;# 
  1060  0215                     	;# 
  1061  0215                     	;# 
  1062  0215                     	;# 
  1063  0216                     	;# 
  1064  0216                     	;# 
  1065  0217                     	;# 
  1066  0217                     	;# 
  1067  0219                     	;# 
  1068  021A                     	;# 
  1069  021B                     	;# 
  1070  021C                     	;# 
  1071  021D                     	;# 
  1072  021E                     	;# 
  1073  021F                     	;# 
  1074  0291                     	;# 
  1075  0291                     	;# 
  1076  0292                     	;# 
  1077  0293                     	;# 
  1078  0294                     	;# 
  1079  0295                     	;# 
  1080  0295                     	;# 
  1081  0296                     	;# 
  1082  0298                     	;# 
  1083  0298                     	;# 
  1084  0299                     	;# 
  1085  029A                     	;# 
  1086  029B                     	;# 
  1087  029C                     	;# 
  1088  029D                     	;# 
  1089  029E                     	;# 
  1090  0311                     	;# 
  1091  0311                     	;# 
  1092  0312                     	;# 
  1093  0313                     	;# 
  1094  0318                     	;# 
  1095  0318                     	;# 
  1096  0319                     	;# 
  1097  031A                     	;# 
  1098  038C                     	;# 
  1099  038D                     	;# 
  1100  038E                     	;# 
  1101  0391                     	;# 
  1102  0392                     	;# 
  1103  0393                     	;# 
  1104  0394                     	;# 
  1105  0395                     	;# 
  1106  0396                     	;# 
  1107  039A                     	;# 
  1108  039C                     	;# 
  1109  039D                     	;# 
  1110  039E                     	;# 
  1111  039F                     	;# 
  1112  0415                     	;# 
  1113  0416                     	;# 
  1114  0417                     	;# 
  1115  041C                     	;# 
  1116  041D                     	;# 
  1117  041E                     	;# 
  1118  0FE4                     	;# 
  1119  0FE5                     	;# 
  1120  0FE6                     	;# 
  1121  0FE7                     	;# 
  1122  0FE8                     	;# 
  1123  0FE9                     	;# 
  1124  0FEA                     	;# 
  1125  0FEB                     	;# 
  1126  0FED                     	;# 
  1127  0FEE                     	;# 
  1128  0FEF                     	;# 
  1129  0000                     	;# 
  1130  0001                     	;# 
  1131  0002                     	;# 
  1132  0003                     	;# 
  1133  0004                     	;# 
  1134  0005                     	;# 
  1135  0006                     	;# 
  1136  0007                     	;# 
  1137  0008                     	;# 
  1138  0009                     	;# 
  1139  000A                     	;# 
  1140  000B                     	;# 
  1141  000C                     	;# 
  1142  000D                     	;# 
  1143  000E                     	;# 
  1144  0011                     	;# 
  1145  0012                     	;# 
  1146  0013                     	;# 
  1147  0014                     	;# 
  1148  0015                     	;# 
  1149  0016                     	;# 
  1150  0016                     	;# 
  1151  0017                     	;# 
  1152  0018                     	;# 
  1153  0019                     	;# 
  1154  001A                     	;# 
  1155  001B                     	;# 
  1156  001C                     	;# 
  1157  001E                     	;# 
  1158  001F                     	;# 
  1159  008C                     	;# 
  1160  008D                     	;# 
  1161  008E                     	;# 
  1162  0091                     	;# 
  1163  0092                     	;# 
  1164  0093                     	;# 
  1165  0094                     	;# 
  1166  0095                     	;# 
  1167  0096                     	;# 
  1168  0097                     	;# 
  1169  0098                     	;# 
  1170  0099                     	;# 
  1171  009A                     	;# 
  1172  009B                     	;# 
  1173  009B                     	;# 
  1174  009C                     	;# 
  1175  009D                     	;# 
  1176  009E                     	;# 
  1177  010C                     	;# 
  1178  010D                     	;# 
  1179  010E                     	;# 
  1180  0111                     	;# 
  1181  0112                     	;# 
  1182  0113                     	;# 
  1183  0114                     	;# 
  1184  0115                     	;# 
  1185  0116                     	;# 
  1186  0117                     	;# 
  1187  0118                     	;# 
  1188  0119                     	;# 
  1189  011A                     	;# 
  1190  011B                     	;# 
  1191  011D                     	;# 
  1192  011E                     	;# 
  1193  018C                     	;# 
  1194  018D                     	;# 
  1195  018E                     	;# 
  1196  0191                     	;# 
  1197  0191                     	;# 
  1198  0192                     	;# 
  1199  0193                     	;# 
  1200  0193                     	;# 
  1201  0193                     	;# 
  1202  0194                     	;# 
  1203  0195                     	;# 
  1204  0196                     	;# 
  1205  0199                     	;# 
  1206  019A                     	;# 
  1207  019B                     	;# 
  1208  019B                     	;# 
  1209  019B                     	;# 
  1210  019B                     	;# 
  1211  019C                     	;# 
  1212  019C                     	;# 
  1213  019D                     	;# 
  1214  019E                     	;# 
  1215  019F                     	;# 
  1216  020C                     	;# 
  1217  020D                     	;# 
  1218  020E                     	;# 
  1219  0211                     	;# 
  1220  0211                     	;# 
  1221  0212                     	;# 
  1222  0212                     	;# 
  1223  0213                     	;# 
  1224  0213                     	;# 
  1225  0214                     	;# 
  1226  0214                     	;# 
  1227  0215                     	;# 
  1228  0215                     	;# 
  1229  0215                     	;# 
  1230  0216                     	;# 
  1231  0216                     	;# 
  1232  0217                     	;# 
  1233  0217                     	;# 
  1234  0219                     	;# 
  1235  021A                     	;# 
  1236  021B                     	;# 
  1237  021C                     	;# 
  1238  021D                     	;# 
  1239  021E                     	;# 
  1240  021F                     	;# 
  1241  0291                     	;# 
  1242  0291                     	;# 
  1243  0292                     	;# 
  1244  0293                     	;# 
  1245  0294                     	;# 
  1246  0295                     	;# 
  1247  0295                     	;# 
  1248  0296                     	;# 
  1249  0298                     	;# 
  1250  0298                     	;# 
  1251  0299                     	;# 
  1252  029A                     	;# 
  1253  029B                     	;# 
  1254  029C                     	;# 
  1255  029D                     	;# 
  1256  029E                     	;# 
  1257  0311                     	;# 
  1258  0311                     	;# 
  1259  0312                     	;# 
  1260  0313                     	;# 
  1261  0318                     	;# 
  1262  0318                     	;# 
  1263  0319                     	;# 
  1264  031A                     	;# 
  1265  038C                     	;# 
  1266  038D                     	;# 
  1267  038E                     	;# 
  1268  0391                     	;# 
  1269  0392                     	;# 
  1270  0393                     	;# 
  1271  0394                     	;# 
  1272  0395                     	;# 
  1273  0396                     	;# 
  1274  039A                     	;# 
  1275  039C                     	;# 
  1276  039D                     	;# 
  1277  039E                     	;# 
  1278  039F                     	;# 
  1279  0415                     	;# 
  1280  0416                     	;# 
  1281  0417                     	;# 
  1282  041C                     	;# 
  1283  041D                     	;# 
  1284  041E                     	;# 
  1285  0FE4                     	;# 
  1286  0FE5                     	;# 
  1287  0FE6                     	;# 
  1288  0FE7                     	;# 
  1289  0FE8                     	;# 
  1290  0FE9                     	;# 
  1291  0FEA                     	;# 
  1292  0FEB                     	;# 
  1293  0FED                     	;# 
  1294  0FEE                     	;# 
  1295  0FEF                     	;# 
  1296  0000                     	;# 
  1297  0001                     	;# 
  1298  0002                     	;# 
  1299  0003                     	;# 
  1300  0004                     	;# 
  1301  0005                     	;# 
  1302  0006                     	;# 
  1303  0007                     	;# 
  1304  0008                     	;# 
  1305  0009                     	;# 
  1306  000A                     	;# 
  1307  000B                     	;# 
  1308  000C                     	;# 
  1309  000D                     	;# 
  1310  000E                     	;# 
  1311  0011                     	;# 
  1312  0012                     	;# 
  1313  0013                     	;# 
  1314  0014                     	;# 
  1315  0015                     	;# 
  1316  0016                     	;# 
  1317  0016                     	;# 
  1318  0017                     	;# 
  1319  0018                     	;# 
  1320  0019                     	;# 
  1321  001A                     	;# 
  1322  001B                     	;# 
  1323  001C                     	;# 
  1324  001E                     	;# 
  1325  001F                     	;# 
  1326  008C                     	;# 
  1327  008D                     	;# 
  1328  008E                     	;# 
  1329  0091                     	;# 
  1330  0092                     	;# 
  1331  0093                     	;# 
  1332  0094                     	;# 
  1333  0095                     	;# 
  1334  0096                     	;# 
  1335  0097                     	;# 
  1336  0098                     	;# 
  1337  0099                     	;# 
  1338  009A                     	;# 
  1339  009B                     	;# 
  1340  009B                     	;# 
  1341  009C                     	;# 
  1342  009D                     	;# 
  1343  009E                     	;# 
  1344  010C                     	;# 
  1345  010D                     	;# 
  1346  010E                     	;# 
  1347  0111                     	;# 
  1348  0112                     	;# 
  1349  0113                     	;# 
  1350  0114                     	;# 
  1351  0115                     	;# 
  1352  0116                     	;# 
  1353  0117                     	;# 
  1354  0118                     	;# 
  1355  0119                     	;# 
  1356  011A                     	;# 
  1357  011B                     	;# 
  1358  011D                     	;# 
  1359  011E                     	;# 
  1360  018C                     	;# 
  1361  018D                     	;# 
  1362  018E                     	;# 
  1363  0191                     	;# 
  1364  0191                     	;# 
  1365  0192                     	;# 
  1366  0193                     	;# 
  1367  0193                     	;# 
  1368  0193                     	;# 
  1369  0194                     	;# 
  1370  0195                     	;# 
  1371  0196                     	;# 
  1372  0199                     	;# 
  1373  019A                     	;# 
  1374  019B                     	;# 
  1375  019B                     	;# 
  1376  019B                     	;# 
  1377  019B                     	;# 
  1378  019C                     	;# 
  1379  019C                     	;# 
  1380  019D                     	;# 
  1381  019E                     	;# 
  1382  019F                     	;# 
  1383  020C                     	;# 
  1384  020D                     	;# 
  1385  020E                     	;# 
  1386  0211                     	;# 
  1387  0211                     	;# 
  1388  0212                     	;# 
  1389  0212                     	;# 
  1390  0213                     	;# 
  1391  0213                     	;# 
  1392  0214                     	;# 
  1393  0214                     	;# 
  1394  0215                     	;# 
  1395  0215                     	;# 
  1396  0215                     	;# 
  1397  0216                     	;# 
  1398  0216                     	;# 
  1399  0217                     	;# 
  1400  0217                     	;# 
  1401  0219                     	;# 
  1402  021A                     	;# 
  1403  021B                     	;# 
  1404  021C                     	;# 
  1405  021D                     	;# 
  1406  021E                     	;# 
  1407  021F                     	;# 
  1408  0291                     	;# 
  1409  0291                     	;# 
  1410  0292                     	;# 
  1411  0293                     	;# 
  1412  0294                     	;# 
  1413  0295                     	;# 
  1414  0295                     	;# 
  1415  0296                     	;# 
  1416  0298                     	;# 
  1417  0298                     	;# 
  1418  0299                     	;# 
  1419  029A                     	;# 
  1420  029B                     	;# 
  1421  029C                     	;# 
  1422  029D                     	;# 
  1423  029E                     	;# 
  1424  0311                     	;# 
  1425  0311                     	;# 
  1426  0312                     	;# 
  1427  0313                     	;# 
  1428  0318                     	;# 
  1429  0318                     	;# 
  1430  0319                     	;# 
  1431  031A                     	;# 
  1432  038C                     	;# 
  1433  038D                     	;# 
  1434  038E                     	;# 
  1435  0391                     	;# 
  1436  0392                     	;# 
  1437  0393                     	;# 
  1438  0394                     	;# 
  1439  0395                     	;# 
  1440  0396                     	;# 
  1441  039A                     	;# 
  1442  039C                     	;# 
  1443  039D                     	;# 
  1444  039E                     	;# 
  1445  039F                     	;# 
  1446  0415                     	;# 
  1447  0416                     	;# 
  1448  0417                     	;# 
  1449  041C                     	;# 
  1450  041D                     	;# 
  1451  041E                     	;# 
  1452  0FE4                     	;# 
  1453  0FE5                     	;# 
  1454  0FE6                     	;# 
  1455  0FE7                     	;# 
  1456  0FE8                     	;# 
  1457  0FE9                     	;# 
  1458  0FEA                     	;# 
  1459  0FEB                     	;# 
  1460  0FED                     	;# 
  1461  0FEE                     	;# 
  1462  0FEF                     	;# 
  1463  0000                     	;# 
  1464  0001                     	;# 
  1465  0002                     	;# 
  1466  0003                     	;# 
  1467  0004                     	;# 
  1468  0005                     	;# 
  1469  0006                     	;# 
  1470  0007                     	;# 
  1471  0008                     	;# 
  1472  0009                     	;# 
  1473  000A                     	;# 
  1474  000B                     	;# 
  1475  000C                     	;# 
  1476  000D                     	;# 
  1477  000E                     	;# 
  1478  0011                     	;# 
  1479  0012                     	;# 
  1480  0013                     	;# 
  1481  0014                     	;# 
  1482  0015                     	;# 
  1483  0016                     	;# 
  1484  0016                     	;# 
  1485  0017                     	;# 
  1486  0018                     	;# 
  1487  0019                     	;# 
  1488  001A                     	;# 
  1489  001B                     	;# 
  1490  001C                     	;# 
  1491  001E                     	;# 
  1492  001F                     	;# 
  1493  008C                     	;# 
  1494  008D                     	;# 
  1495  008E                     	;# 
  1496  0091                     	;# 
  1497  0092                     	;# 
  1498  0093                     	;# 
  1499  0094                     	;# 
  1500  0095                     	;# 
  1501  0096                     	;# 
  1502  0097                     	;# 
  1503  0098                     	;# 
  1504  0099                     	;# 
  1505  009A                     	;# 
  1506  009B                     	;# 
  1507  009B                     	;# 
  1508  009C                     	;# 
  1509  009D                     	;# 
  1510  009E                     	;# 
  1511  010C                     	;# 
  1512  010D                     	;# 
  1513  010E                     	;# 
  1514  0111                     	;# 
  1515  0112                     	;# 
  1516  0113                     	;# 
  1517  0114                     	;# 
  1518  0115                     	;# 
  1519  0116                     	;# 
  1520  0117                     	;# 
  1521  0118                     	;# 
  1522  0119                     	;# 
  1523  011A                     	;# 
  1524  011B                     	;# 
  1525  011D                     	;# 
  1526  011E                     	;# 
  1527  018C                     	;# 
  1528  018D                     	;# 
  1529  018E                     	;# 
  1530  0191                     	;# 
  1531  0191                     	;# 
  1532  0192                     	;# 
  1533  0193                     	;# 
  1534  0193                     	;# 
  1535  0193                     	;# 
  1536  0194                     	;# 
  1537  0195                     	;# 
  1538  0196                     	;# 
  1539  0199                     	;# 
  1540  019A                     	;# 
  1541  019B                     	;# 
  1542  019B                     	;# 
  1543  019B                     	;# 
  1544  019B                     	;# 
  1545  019C                     	;# 
  1546  019C                     	;# 
  1547  019D                     	;# 
  1548  019E                     	;# 
  1549  019F                     	;# 
  1550  020C                     	;# 
  1551  020D                     	;# 
  1552  020E                     	;# 
  1553  0211                     	;# 
  1554  0211                     	;# 
  1555  0212                     	;# 
  1556  0212                     	;# 
  1557  0213                     	;# 
  1558  0213                     	;# 
  1559  0214                     	;# 
  1560  0214                     	;# 
  1561  0215                     	;# 
  1562  0215                     	;# 
  1563  0215                     	;# 
  1564  0216                     	;# 
  1565  0216                     	;# 
  1566  0217                     	;# 
  1567  0217                     	;# 
  1568  0219                     	;# 
  1569  021A                     	;# 
  1570  021B                     	;# 
  1571  021C                     	;# 
  1572  021D                     	;# 
  1573  021E                     	;# 
  1574  021F                     	;# 
  1575  0291                     	;# 
  1576  0291                     	;# 
  1577  0292                     	;# 
  1578  0293                     	;# 
  1579  0294                     	;# 
  1580  0295                     	;# 
  1581  0295                     	;# 
  1582  0296                     	;# 
  1583  0298                     	;# 
  1584  0298                     	;# 
  1585  0299                     	;# 
  1586  029A                     	;# 
  1587  029B                     	;# 
  1588  029C                     	;# 
  1589  029D                     	;# 
  1590  029E                     	;# 
  1591  0311                     	;# 
  1592  0311                     	;# 
  1593  0312                     	;# 
  1594  0313                     	;# 
  1595  0318                     	;# 
  1596  0318                     	;# 
  1597  0319                     	;# 
  1598  031A                     	;# 
  1599  038C                     	;# 
  1600  038D                     	;# 
  1601  038E                     	;# 
  1602  0391                     	;# 
  1603  0392                     	;# 
  1604  0393                     	;# 
  1605  0394                     	;# 
  1606  0395                     	;# 
  1607  0396                     	;# 
  1608  039A                     	;# 
  1609  039C                     	;# 
  1610  039D                     	;# 
  1611  039E                     	;# 
  1612  039F                     	;# 
  1613  0415                     	;# 
  1614  0416                     	;# 
  1615  0417                     	;# 
  1616  041C                     	;# 
  1617  041D                     	;# 
  1618  041E                     	;# 
  1619  0FE4                     	;# 
  1620  0FE5                     	;# 
  1621  0FE6                     	;# 
  1622  0FE7                     	;# 
  1623  0FE8                     	;# 
  1624  0FE9                     	;# 
  1625  0FEA                     	;# 
  1626  0FEB                     	;# 
  1627  0FED                     	;# 
  1628  0FEE                     	;# 
  1629  0FEF                     	;# 
  1630  0000                     	;# 
  1631  0001                     	;# 
  1632  0002                     	;# 
  1633  0003                     	;# 
  1634  0004                     	;# 
  1635  0005                     	;# 
  1636  0006                     	;# 
  1637  0007                     	;# 
  1638  0008                     	;# 
  1639  0009                     	;# 
  1640  000A                     	;# 
  1641  000B                     	;# 
  1642  000C                     	;# 
  1643  000D                     	;# 
  1644  000E                     	;# 
  1645  0011                     	;# 
  1646  0012                     	;# 
  1647  0013                     	;# 
  1648  0014                     	;# 
  1649  0015                     	;# 
  1650  0016                     	;# 
  1651  0016                     	;# 
  1652  0017                     	;# 
  1653  0018                     	;# 
  1654  0019                     	;# 
  1655  001A                     	;# 
  1656  001B                     	;# 
  1657  001C                     	;# 
  1658  001E                     	;# 
  1659  001F                     	;# 
  1660  008C                     	;# 
  1661  008D                     	;# 
  1662  008E                     	;# 
  1663  0091                     	;# 
  1664  0092                     	;# 
  1665  0093                     	;# 
  1666  0094                     	;# 
  1667  0095                     	;# 
  1668  0096                     	;# 
  1669  0097                     	;# 
  1670  0098                     	;# 
  1671  0099                     	;# 
  1672  009A                     	;# 
  1673  009B                     	;# 
  1674  009B                     	;# 
  1675  009C                     	;# 
  1676  009D                     	;# 
  1677  009E                     	;# 
  1678  010C                     	;# 
  1679  010D                     	;# 
  1680  010E                     	;# 
  1681  0111                     	;# 
  1682  0112                     	;# 
  1683  0113                     	;# 
  1684  0114                     	;# 
  1685  0115                     	;# 
  1686  0116                     	;# 
  1687  0117                     	;# 
  1688  0118                     	;# 
  1689  0119                     	;# 
  1690  011A                     	;# 
  1691  011B                     	;# 
  1692  011D                     	;# 
  1693  011E                     	;# 
  1694  018C                     	;# 
  1695  018D                     	;# 
  1696  018E                     	;# 
  1697  0191                     	;# 
  1698  0191                     	;# 
  1699  0192                     	;# 
  1700  0193                     	;# 
  1701  0193                     	;# 
  1702  0193                     	;# 
  1703  0194                     	;# 
  1704  0195                     	;# 
  1705  0196                     	;# 
  1706  0199                     	;# 
  1707  019A                     	;# 
  1708  019B                     	;# 
  1709  019B                     	;# 
  1710  019B                     	;# 
  1711  019B                     	;# 
  1712  019C                     	;# 
  1713  019C                     	;# 
  1714  019D                     	;# 
  1715  019E                     	;# 
  1716  019F                     	;# 
  1717  020C                     	;# 
  1718  020D                     	;# 
  1719  020E                     	;# 
  1720  0211                     	;# 
  1721  0211                     	;# 
  1722  0212                     	;# 
  1723  0212                     	;# 
  1724  0213                     	;# 
  1725  0213                     	;# 
  1726  0214                     	;# 
  1727  0214                     	;# 
  1728  0215                     	;# 
  1729  0215                     	;# 
  1730  0215                     	;# 
  1731  0216                     	;# 
  1732  0216                     	;# 
  1733  0217                     	;# 
  1734  0217                     	;# 
  1735  0219                     	;# 
  1736  021A                     	;# 
  1737  021B                     	;# 
  1738  021C                     	;# 
  1739  021D                     	;# 
  1740  021E                     	;# 
  1741  021F                     	;# 
  1742  0291                     	;# 
  1743  0291                     	;# 
  1744  0292                     	;# 
  1745  0293                     	;# 
  1746  0294                     	;# 
  1747  0295                     	;# 
  1748  0295                     	;# 
  1749  0296                     	;# 
  1750  0298                     	;# 
  1751  0298                     	;# 
  1752  0299                     	;# 
  1753  029A                     	;# 
  1754  029B                     	;# 
  1755  029C                     	;# 
  1756  029D                     	;# 
  1757  029E                     	;# 
  1758  0311                     	;# 
  1759  0311                     	;# 
  1760  0312                     	;# 
  1761  0313                     	;# 
  1762  0318                     	;# 
  1763  0318                     	;# 
  1764  0319                     	;# 
  1765  031A                     	;# 
  1766  038C                     	;# 
  1767  038D                     	;# 
  1768  038E                     	;# 
  1769  0391                     	;# 
  1770  0392                     	;# 
  1771  0393                     	;# 
  1772  0394                     	;# 
  1773  0395                     	;# 
  1774  0396                     	;# 
  1775  039A                     	;# 
  1776  039C                     	;# 
  1777  039D                     	;# 
  1778  039E                     	;# 
  1779  039F                     	;# 
  1780  0415                     	;# 
  1781  0416                     	;# 
  1782  0417                     	;# 
  1783  041C                     	;# 
  1784  041D                     	;# 
  1785  041E                     	;# 
  1786  0FE4                     	;# 
  1787  0FE5                     	;# 
  1788  0FE6                     	;# 
  1789  0FE7                     	;# 
  1790  0FE8                     	;# 
  1791  0FE9                     	;# 
  1792  0FEA                     	;# 
  1793  0FEB                     	;# 
  1794  0FED                     	;# 
  1795  0FEE                     	;# 
  1796  0FEF                     	;# 
  1797  0000                     	;# 
  1798  0001                     	;# 
  1799  0002                     	;# 
  1800  0003                     	;# 
  1801  0004                     	;# 
  1802  0005                     	;# 
  1803  0006                     	;# 
  1804  0007                     	;# 
  1805  0008                     	;# 
  1806  0009                     	;# 
  1807  000A                     	;# 
  1808  000B                     	;# 
  1809  000C                     	;# 
  1810  000D                     	;# 
  1811  000E                     	;# 
  1812  0011                     	;# 
  1813  0012                     	;# 
  1814  0013                     	;# 
  1815  0014                     	;# 
  1816  0015                     	;# 
  1817  0016                     	;# 
  1818  0016                     	;# 
  1819  0017                     	;# 
  1820  0018                     	;# 
  1821  0019                     	;# 
  1822  001A                     	;# 
  1823  001B                     	;# 
  1824  001C                     	;# 
  1825  001E                     	;# 
  1826  001F                     	;# 
  1827  008C                     	;# 
  1828  008D                     	;# 
  1829  008E                     	;# 
  1830  0091                     	;# 
  1831  0092                     	;# 
  1832  0093                     	;# 
  1833  0094                     	;# 
  1834  0095                     	;# 
  1835  0096                     	;# 
  1836  0097                     	;# 
  1837  0098                     	;# 
  1838  0099                     	;# 
  1839  009A                     	;# 
  1840  009B                     	;# 
  1841  009B                     	;# 
  1842  009C                     	;# 
  1843  009D                     	;# 
  1844  009E                     	;# 
  1845  010C                     	;# 
  1846  010D                     	;# 
  1847  010E                     	;# 
  1848  0111                     	;# 
  1849  0112                     	;# 
  1850  0113                     	;# 
  1851  0114                     	;# 
  1852  0115                     	;# 
  1853  0116                     	;# 
  1854  0117                     	;# 
  1855  0118                     	;# 
  1856  0119                     	;# 
  1857  011A                     	;# 
  1858  011B                     	;# 
  1859  011D                     	;# 
  1860  011E                     	;# 
  1861  018C                     	;# 
  1862  018D                     	;# 
  1863  018E                     	;# 
  1864  0191                     	;# 
  1865  0191                     	;# 
  1866  0192                     	;# 
  1867  0193                     	;# 
  1868  0193                     	;# 
  1869  0193                     	;# 
  1870  0194                     	;# 
  1871  0195                     	;# 
  1872  0196                     	;# 
  1873  0199                     	;# 
  1874  019A                     	;# 
  1875  019B                     	;# 
  1876  019B                     	;# 
  1877  019B                     	;# 
  1878  019B                     	;# 
  1879  019C                     	;# 
  1880  019C                     	;# 
  1881  019D                     	;# 
  1882  019E                     	;# 
  1883  019F                     	;# 
  1884  020C                     	;# 
  1885  020D                     	;# 
  1886  020E                     	;# 
  1887  0211                     	;# 
  1888  0211                     	;# 
  1889  0212                     	;# 
  1890  0212                     	;# 
  1891  0213                     	;# 
  1892  0213                     	;# 
  1893  0214                     	;# 
  1894  0214                     	;# 
  1895  0215                     	;# 
  1896  0215                     	;# 
  1897  0215                     	;# 
  1898  0216                     	;# 
  1899  0216                     	;# 
  1900  0217                     	;# 
  1901  0217                     	;# 
  1902  0219                     	;# 
  1903  021A                     	;# 
  1904  021B                     	;# 
  1905  021C                     	;# 
  1906  021D                     	;# 
  1907  021E                     	;# 
  1908  021F                     	;# 
  1909  0291                     	;# 
  1910  0291                     	;# 
  1911  0292                     	;# 
  1912  0293                     	;# 
  1913  0294                     	;# 
  1914  0295                     	;# 
  1915  0295                     	;# 
  1916  0296                     	;# 
  1917  0298                     	;# 
  1918  0298                     	;# 
  1919  0299                     	;# 
  1920  029A                     	;# 
  1921  029B                     	;# 
  1922  029C                     	;# 
  1923  029D                     	;# 
  1924  029E                     	;# 
  1925  0311                     	;# 
  1926  0311                     	;# 
  1927  0312                     	;# 
  1928  0313                     	;# 
  1929  0318                     	;# 
  1930  0318                     	;# 
  1931  0319                     	;# 
  1932  031A                     	;# 
  1933  038C                     	;# 
  1934  038D                     	;# 
  1935  038E                     	;# 
  1936  0391                     	;# 
  1937  0392                     	;# 
  1938  0393                     	;# 
  1939  0394                     	;# 
  1940  0395                     	;# 
  1941  0396                     	;# 
  1942  039A                     	;# 
  1943  039C                     	;# 
  1944  039D                     	;# 
  1945  039E                     	;# 
  1946  039F                     	;# 
  1947  0415                     	;# 
  1948  0416                     	;# 
  1949  0417                     	;# 
  1950  041C                     	;# 
  1951  041D                     	;# 
  1952  041E                     	;# 
  1953  0FE4                     	;# 
  1954  0FE5                     	;# 
  1955  0FE6                     	;# 
  1956  0FE7                     	;# 
  1957  0FE8                     	;# 
  1958  0FE9                     	;# 
  1959  0FEA                     	;# 
  1960  0FEB                     	;# 
  1961  0FED                     	;# 
  1962  0FEE                     	;# 
  1963  0FEF                     	;# 
  1964                           
  1965                           	psect	stringtext1
  1966  036A                     __pstringtext1:
  1967  036A                     _i2c1_fsmStateTable:
  1968  036A  3479               	retlw	low _I2C1_DO_IDLE
  1969  036B  3406               	retlw	high _I2C1_DO_IDLE
  1970  036C  340C               	retlw	low _I2C1_DO_SEND_ADR_READ
  1971  036D  3406               	retlw	high _I2C1_DO_SEND_ADR_READ
  1972  036E  3426               	retlw	low _I2C1_DO_SEND_ADR_WRITE
  1973  036F  3406               	retlw	high _I2C1_DO_SEND_ADR_WRITE
  1974  0370  3450               	retlw	low _I2C1_DO_TX
  1975  0371  3401               	retlw	high _I2C1_DO_TX
  1976  0372  34A6               	retlw	low _I2C1_DO_RX
  1977  0373  3401               	retlw	high _I2C1_DO_RX
  1978  0374  342E               	retlw	low _I2C1_DO_RCEN
  1979  0375  3406               	retlw	high _I2C1_DO_RCEN
  1980  0376  3492               	retlw	low _I2C1_DO_TX_EMPTY
  1981  0377  3402               	retlw	high _I2C1_DO_TX_EMPTY
  1982  0378  3474               	retlw	low _I2C1_DO_SEND_RESTART_READ
  1983  0379  3406               	retlw	high _I2C1_DO_SEND_RESTART_READ
  1984  037A  346F               	retlw	low _I2C1_DO_SEND_RESTART_WRITE
  1985  037B  3406               	retlw	high _I2C1_DO_SEND_RESTART_WRITE
  1986  037C  346A               	retlw	low _I2C1_DO_SEND_RESTART
  1987  037D  3406               	retlw	high _I2C1_DO_SEND_RESTART
  1988  037E  3465               	retlw	low _I2C1_DO_SEND_STOP
  1989  037F  3406               	retlw	high _I2C1_DO_SEND_STOP
  1990  0380  3460               	retlw	low _I2C1_DO_RX_ACK
  1991  0381  3406               	retlw	high _I2C1_DO_RX_ACK
  1992  0382  345B               	retlw	low _I2C1_DO_RX_NACK_STOP
  1993  0383  3406               	retlw	high _I2C1_DO_RX_NACK_STOP
  1994  0384  3456               	retlw	low _I2C1_DO_RX_NACK_RESTART
  1995  0385  3406               	retlw	high _I2C1_DO_RX_NACK_RESTART
  1996  0386  3451               	retlw	low _I2C1_DO_RESET
  1997  0387  3406               	retlw	high _I2C1_DO_RESET
  1998  0388  34C2               	retlw	low _I2C1_DO_ADDRESS_NACK
  1999  0389  3402               	retlw	high _I2C1_DO_ADDRESS_NACK
  2000  038A                     __end_of_i2c1_fsmStateTable:
  2001                           
  2002                           	psect	nvCOMMON
  2003  0078                     __pnvCOMMON:
  2004  0078                     _IOCBF7_InterruptHandler:
  2005  0078                     	ds	2
  2006  0012                     _PIR2bits	set	18
  2007  001C                     _T2CONbits	set	28
  2008  001C                     _T2CON	set	28
  2009  0011                     _PIR1bits	set	17
  2010  001A                     _TMR2	set	26
  2011  001B                     _PR2	set	27
  2012  000B                     _INTCONbits	set	11
  2013  0091                     _PIE1bits	set	145
  2014  0095                     _OPTION_REGbits	set	149
  2015  008E                     _TRISC	set	142
  2016  008D                     _TRISB	set	141
  2017  008C                     _TRISA	set	140
  2018  0097                     _WDTCON	set	151
  2019  0098                     _OSCTUNE	set	152
  2020  0099                     _OSCCON	set	153
  2021  04D6                     _PLLR	set	1238
  2022  011E                     _APFCON1	set	286
  2023  011D                     _APFCON0	set	285
  2024  010E                     _LATC	set	270
  2025  010D                     _LATB	set	269
  2026  010C                     _LATA	set	268
  2027  0116                     _BORCON	set	278
  2028  018C                     _ANSELA	set	396
  2029  018D                     _ANSELB	set	397
  2030  018E                     _ANSELC	set	398
  2031  0214                     _SSP1STATbits	set	532
  2032  0216                     _SSP1CON2bits	set	534
  2033  0211                     _SSP1BUF	set	529
  2034  0215                     _SSP1CON1bits	set	533
  2035  0212                     _SSP1ADD	set	530
  2036  0216                     _SSP1CON2	set	534
  2037  0215                     _SSP1CON1	set	533
  2038  0214                     _SSP1STAT	set	532
  2039  020E                     _WPUC	set	526
  2040  020C                     _WPUA	set	524
  2041  020D                     _WPUB	set	525
  2042  0291                     _CCPR1L	set	657
  2043  0292                     _CCPR1H	set	658
  2044  0296                     _PSTR1CON	set	662
  2045  0294                     _PWM1CON	set	660
  2046  0295                     _ECCP1AS	set	661
  2047  0293                     _CCP1CON	set	659
  2048  0298                     _CCPR2L	set	664
  2049  0299                     _CCPR2H	set	665
  2050  029D                     _PSTR2CON	set	669
  2051  029B                     _PWM2CON	set	667
  2052  029C                     _CCP2AS	set	668
  2053  029A                     _CCP2CON	set	666
  2054  029E                     _CCPTMRSbits	set	670
  2055  0319                     _CCPR4H	set	793
  2056  0318                     _CCPR4L	set	792
  2057  031A                     _CCP4CON	set	794
  2058  0394                     _IOCBPbits	set	916
  2059  0395                     _IOCBNbits	set	917
  2060  0396                     _IOCBFbits	set	918
  2061                           
  2062                           	psect	cinit
  2063  0015                     start_initialization:	
  2064                           ; #config settings
  2065                           
  2066  0015                     __initialization:
  2067                           
  2068                           ; Clear objects allocated to BANK0
  2069  0015  3020               	movlw	low __pbssBANK0
  2070  0016  0084               	movwf	4
  2071  0017  3000               	movlw	high __pbssBANK0
  2072  0018  0085               	movwf	5
  2073  0019  301D               	movlw	29
  2074  001A  3186  2635  3180   	fcall	clear_ram0
  2075  001D                     end_of_initialization:	
  2076                           ;End of C runtime variable initialization code
  2077                           
  2078  001D                     __end_of__initialization:
  2079  001D  107E               	bcf	int$flags,0	;clear compiler interrupt flag (level 1)
  2080  001E  0020               	movlb	0
  2081  001F  3180  2821         	ljmp	_main	;jump to C main() function
  2082                           
  2083                           	psect	bssBANK0
  2084  0020                     __pbssBANK0:
  2085  0020                     _I2C1_Status:
  2086  0020                     	ds	29
  2087                           
  2088                           	psect	clrtext
  2089  0635                     clear_ram0:	
  2090                           ;	Called with FSR0 containing the base address, and
  2091                           ;	WREG with the size to clear
  2092                           
  2093  0635  0064               	clrwdt	;clear the watchdog before getting into this loop
  2094  0636                     clrloop0:
  2095  0636  0180               	clrf	0	;clear RAM location pointed to by FSR
  2096  0637  3101               	addfsr 0,1
  2097  0638  0B89               	decfsz	9,f	;Have we reached the end of clearing yet?
  2098  0639  2E36               	goto	clrloop0	;have we reached the end yet?
  2099  063A  3400               	retlw	0	;all done for this memory range, return
  2100                           
  2101                           	psect	cstackCOMMON
  2102  0070                     __pcstackCOMMON:
  2103  0070                     ?_I2C1_Initialize:
  2104  0070                     ?_PIN_MANAGER_Initialize:	
  2105                           ; 1 bytes @ 0x0
  2106                           
  2107  0070                     ?_OSCILLATOR_Initialize:	
  2108                           ; 1 bytes @ 0x0
  2109                           
  2110  0070                     ?_WDT_Initialize:	
  2111                           ; 1 bytes @ 0x0
  2112                           
  2113  0070                     ?_EPWM2_Initialize:	
  2114                           ; 1 bytes @ 0x0
  2115                           
  2116  0070                     ?_EPWM1_Initialize:	
  2117                           ; 1 bytes @ 0x0
  2118                           
  2119  0070                     ?_PWM4_Initialize:	
  2120                           ; 1 bytes @ 0x0
  2121                           
  2122  0070                     ?_TMR2_Initialize:	
  2123                           ; 1 bytes @ 0x0
  2124                           
  2125  0070                     ?_ButtonInterrupt:	
  2126                           ; 1 bytes @ 0x0
  2127                           
  2128  0070                     ?_IOCBF7_DefaultInterruptHandler:	
  2129                           ; 1 bytes @ 0x0
  2130                           
  2131  0070                     ??_IOCBF7_DefaultInterruptHandler:	
  2132                           ; 1 bytes @ 0x0
  2133                           
  2134  0070                     ?_IOCBF7_ISR:	
  2135                           ; 1 bytes @ 0x0
  2136                           
  2137  0070                     ?_I2C1_Open:	
  2138                           ; 1 bytes @ 0x0
  2139                           
  2140  0070                     ?_I2C1_MasterWrite:	
  2141                           ; 1 bytes @ 0x0
  2142                           
  2143  0070                     ?_I2C1_Close:	
  2144                           ; 1 bytes @ 0x0
  2145                           
  2146  0070                     ?_I2C1_DO_IDLE:	
  2147                           ; 1 bytes @ 0x0
  2148                           
  2149  0070                     ?_I2C1_DO_SEND_ADR_READ:	
  2150                           ; 1 bytes @ 0x0
  2151                           
  2152  0070                     ?_I2C1_DO_SEND_ADR_WRITE:	
  2153                           ; 1 bytes @ 0x0
  2154                           
  2155  0070                     ?_I2C1_DO_TX:	
  2156                           ; 1 bytes @ 0x0
  2157                           
  2158  0070                     ?_I2C1_DO_RX:	
  2159                           ; 1 bytes @ 0x0
  2160                           
  2161  0070                     ?_I2C1_DO_RCEN:	
  2162                           ; 1 bytes @ 0x0
  2163                           
  2164  0070                     ?_I2C1_DO_TX_EMPTY:	
  2165                           ; 1 bytes @ 0x0
  2166                           
  2167  0070                     ?_I2C1_DO_SEND_RESTART_READ:	
  2168                           ; 1 bytes @ 0x0
  2169                           
  2170  0070                     ?_I2C1_DO_SEND_RESTART_WRITE:	
  2171                           ; 1 bytes @ 0x0
  2172                           
  2173  0070                     ?_I2C1_DO_SEND_RESTART:	
  2174                           ; 1 bytes @ 0x0
  2175                           
  2176  0070                     ?_I2C1_DO_SEND_STOP:	
  2177                           ; 1 bytes @ 0x0
  2178                           
  2179  0070                     ?_I2C1_DO_RX_ACK:	
  2180                           ; 1 bytes @ 0x0
  2181                           
  2182  0070                     ?_I2C1_DO_RX_NACK_STOP:	
  2183                           ; 1 bytes @ 0x0
  2184                           
  2185  0070                     ?_I2C1_DO_RX_NACK_RESTART:	
  2186                           ; 1 bytes @ 0x0
  2187                           
  2188  0070                     ?_I2C1_DO_RESET:	
  2189                           ; 1 bytes @ 0x0
  2190                           
  2191  0070                     ?_I2C1_DO_ADDRESS_NACK:	
  2192                           ; 1 bytes @ 0x0
  2193                           
  2194  0070                     ?_I2C1_MasterClearIrq:	
  2195                           ; 1 bytes @ 0x0
  2196                           
  2197  0070                     ?_I2C1_MasterOpen:	
  2198                           ; 1 bytes @ 0x0
  2199                           
  2200  0070                     ?_I2C1_MasterDisableIrq:	
  2201                           ; 1 bytes @ 0x0
  2202                           
  2203  0070                     ?_I2C1_MasterClose:	
  2204                           ; 1 bytes @ 0x0
  2205                           
  2206  0070                     ?_I2C1_MasterStart:	
  2207                           ; 1 bytes @ 0x0
  2208                           
  2209  0070                     ?_I2C1_Poller:	
  2210                           ; 1 bytes @ 0x0
  2211                           
  2212  0070                     ?_I2C1_MasterWaitForEvent:	
  2213                           ; 1 bytes @ 0x0
  2214                           
  2215  0070                     ?_I2C1_MasterFsm:	
  2216                           ; 1 bytes @ 0x0
  2217                           
  2218  0070                     ?_I2C1_MasterIsNack:	
  2219                           ; 1 bytes @ 0x0
  2220                           
  2221  0070                     ?_I2C1_MasterSendTxData:	
  2222                           ; 1 bytes @ 0x0
  2223                           
  2224  0070                     ?_I2C1_MasterGetRxData:	
  2225                           ; 1 bytes @ 0x0
  2226                           
  2227  0070                     ?_I2C1_MasterSendAck:	
  2228                           ; 1 bytes @ 0x0
  2229                           
  2230  0070                     ?_I2C1_MasterStartRx:	
  2231                           ; 1 bytes @ 0x0
  2232                           
  2233  0070                     ?_I2C1_MasterSetIrq:	
  2234                           ; 1 bytes @ 0x0
  2235                           
  2236  0070                     ?_I2C1_MasterEnableRestart:	
  2237                           ; 1 bytes @ 0x0
  2238                           
  2239  0070                     ?_I2C1_MasterStop:	
  2240                           ; 1 bytes @ 0x0
  2241                           
  2242  0070                     ?_I2C1_MasterSendNack:	
  2243                           ; 1 bytes @ 0x0
  2244                           
  2245  0070                     ?_SYSTEM_Initialize:	
  2246                           ; 1 bytes @ 0x0
  2247                           
  2248  0070                     ?_main:	
  2249                           ; 1 bytes @ 0x0
  2250                           
  2251  0070                     ?_PIN_MANAGER_IOC:	
  2252                           ; 1 bytes @ 0x0
  2253                           
  2254  0070                     ?_I2C1_MasterOperation:	
  2255                           ; 1 bytes @ 0x0
  2256                           
  2257  0070                     ?_INTERRUPT_InterruptManager:	
  2258                           ; 1 bytes @ 0x0
  2259                           
  2260  0070                     ?i1_PWM4_LoadDutyValue:	
  2261                           ; 1 bytes @ 0x0
  2262                           
  2263  0070                     ?i1_EPWM2_LoadDutyValue:	
  2264                           ; 1 bytes @ 0x0
  2265                           
  2266  0070                     ?i1_EPWM1_LoadDutyValue:	
  2267                           ; 1 bytes @ 0x0
  2268                           
  2269  0070                     ?i1_DELAY_milliseconds:	
  2270                           ; 1 bytes @ 0x0
  2271                           
  2272  0070                     i1PWM4_LoadDutyValue@dutyValue:	
  2273                           ; 1 bytes @ 0x0
  2274                           
  2275  0070                     i1EPWM2_LoadDutyValue@dutyValue:	
  2276                           ; 2 bytes @ 0x0
  2277                           
  2278  0070                     i1EPWM1_LoadDutyValue@dutyValue:	
  2279                           ; 2 bytes @ 0x0
  2280                           
  2281  0070                     i1DELAY_milliseconds@milliseconds:	
  2282                           ; 2 bytes @ 0x0
  2283                           
  2284                           
  2285                           ; 2 bytes @ 0x0
  2286  0070                     	ds	2
  2287  0072                     ??i1_PWM4_LoadDutyValue:
  2288  0072                     ??i1_EPWM2_LoadDutyValue:	
  2289                           ; 1 bytes @ 0x2
  2290                           
  2291  0072                     ??i1_EPWM1_LoadDutyValue:	
  2292                           ; 1 bytes @ 0x2
  2293                           
  2294  0072                     ??i1_DELAY_milliseconds:	
  2295                           ; 1 bytes @ 0x2
  2296                           
  2297                           
  2298                           ; 1 bytes @ 0x2
  2299  0072                     	ds	2
  2300  0074                     ??_I2C1_Initialize:
  2301  0074                     ??_OSCILLATOR_Initialize:	
  2302                           ; 1 bytes @ 0x4
  2303                           
  2304  0074                     ??_WDT_Initialize:	
  2305                           ; 1 bytes @ 0x4
  2306                           
  2307  0074                     ??_EPWM2_Initialize:	
  2308                           ; 1 bytes @ 0x4
  2309                           
  2310  0074                     ??_EPWM1_Initialize:	
  2311                           ; 1 bytes @ 0x4
  2312                           
  2313  0074                     ??_PWM4_Initialize:	
  2314                           ; 1 bytes @ 0x4
  2315                           
  2316  0074                     ??_TMR2_Initialize:	
  2317                           ; 1 bytes @ 0x4
  2318                           
  2319  0074                     ?_DELAY_milliseconds:	
  2320                           ; 1 bytes @ 0x4
  2321                           
  2322  0074                     ?_IOCBF7_SetInterruptHandler:	
  2323                           ; 1 bytes @ 0x4
  2324                           
  2325  0074                     ??_ButtonInterrupt:	
  2326                           ; 1 bytes @ 0x4
  2327                           
  2328  0074                     ?_EPWM2_LoadDutyValue:	
  2329                           ; 1 bytes @ 0x4
  2330                           
  2331  0074                     ?_EPWM1_LoadDutyValue:	
  2332                           ; 1 bytes @ 0x4
  2333                           
  2334  0074                     ??_IOCBF7_ISR:	
  2335                           ; 1 bytes @ 0x4
  2336                           
  2337  0074                     ??_I2C1_Open:	
  2338                           ; 1 bytes @ 0x4
  2339                           
  2340  0074                     ?_I2C1_SetBuffer:	
  2341                           ; 1 bytes @ 0x4
  2342                           
  2343  0074                     ??_I2C1_Close:	
  2344                           ; 1 bytes @ 0x4
  2345                           
  2346  0074                     ??_I2C1_DO_IDLE:	
  2347                           ; 1 bytes @ 0x4
  2348                           
  2349  0074                     ??_I2C1_DO_SEND_ADR_READ:	
  2350                           ; 1 bytes @ 0x4
  2351                           
  2352  0074                     ??_I2C1_DO_RCEN:	
  2353                           ; 1 bytes @ 0x4
  2354                           
  2355  0074                     ??_I2C1_DO_SEND_RESTART_READ:	
  2356                           ; 1 bytes @ 0x4
  2357                           
  2358  0074                     ??_I2C1_DO_SEND_RESTART_WRITE:	
  2359                           ; 1 bytes @ 0x4
  2360                           
  2361  0074                     ??_I2C1_DO_SEND_RESTART:	
  2362                           ; 1 bytes @ 0x4
  2363                           
  2364  0074                     ??_I2C1_DO_SEND_STOP:	
  2365                           ; 1 bytes @ 0x4
  2366                           
  2367  0074                     ??_I2C1_DO_RX_ACK:	
  2368                           ; 1 bytes @ 0x4
  2369                           
  2370  0074                     ??_I2C1_DO_RX_NACK_STOP:	
  2371                           ; 1 bytes @ 0x4
  2372                           
  2373  0074                     ??_I2C1_DO_RX_NACK_RESTART:	
  2374                           ; 1 bytes @ 0x4
  2375                           
  2376  0074                     ??_I2C1_DO_RESET:	
  2377                           ; 1 bytes @ 0x4
  2378                           
  2379  0074                     ??_I2C1_MasterClearIrq:	
  2380                           ; 1 bytes @ 0x4
  2381                           
  2382  0074                     ??_I2C1_MasterOpen:	
  2383                           ; 1 bytes @ 0x4
  2384                           
  2385  0074                     ??_I2C1_MasterDisableIrq:	
  2386                           ; 1 bytes @ 0x4
  2387                           
  2388  0074                     ??_I2C1_MasterClose:	
  2389                           ; 1 bytes @ 0x4
  2390                           
  2391  0074                     ??_I2C1_MasterStart:	
  2392                           ; 1 bytes @ 0x4
  2393                           
  2394  0074                     ?_I2C1_SetCallback:	
  2395                           ; 1 bytes @ 0x4
  2396                           
  2397  0074                     ??_I2C1_MasterWaitForEvent:	
  2398                           ; 1 bytes @ 0x4
  2399                           
  2400  0074                     ??_I2C1_MasterIsNack:	
  2401                           ; 1 bytes @ 0x4
  2402                           
  2403  0074                     ??_I2C1_MasterSendTxData:	
  2404                           ; 1 bytes @ 0x4
  2405                           
  2406  0074                     ??_I2C1_MasterGetRxData:	
  2407                           ; 1 bytes @ 0x4
  2408                           
  2409  0074                     ??_I2C1_MasterSendAck:	
  2410                           ; 1 bytes @ 0x4
  2411                           
  2412  0074                     ??_I2C1_MasterStartRx:	
  2413                           ; 1 bytes @ 0x4
  2414                           
  2415  0074                     ??_I2C1_MasterSetIrq:	
  2416                           ; 1 bytes @ 0x4
  2417                           
  2418  0074                     ??_I2C1_MasterEnableRestart:	
  2419                           ; 1 bytes @ 0x4
  2420                           
  2421  0074                     ??_I2C1_MasterStop:	
  2422                           ; 1 bytes @ 0x4
  2423                           
  2424  0074                     ??_I2C1_MasterSendNack:	
  2425                           ; 1 bytes @ 0x4
  2426                           
  2427  0074                     ?_PWM4_LoadDutyValue:	
  2428                           ; 1 bytes @ 0x4
  2429                           
  2430  0074                     ??_PIN_MANAGER_IOC:	
  2431                           ; 1 bytes @ 0x4
  2432                           
  2433  0074                     ??_INTERRUPT_InterruptManager:	
  2434                           ; 1 bytes @ 0x4
  2435                           
  2436  0074                     I2C1_MasterSendTxData@data:	
  2437                           ; 1 bytes @ 0x4
  2438                           
  2439  0074                     PWM4_LoadDutyValue@dutyValue:	
  2440                           ; 1 bytes @ 0x4
  2441                           
  2442  0074                     EPWM2_LoadDutyValue@dutyValue:	
  2443                           ; 2 bytes @ 0x4
  2444                           
  2445  0074                     EPWM1_LoadDutyValue@dutyValue:	
  2446                           ; 2 bytes @ 0x4
  2447                           
  2448  0074                     IOCBF7_SetInterruptHandler@InterruptHandler:	
  2449                           ; 2 bytes @ 0x4
  2450                           
  2451  0074                     DELAY_milliseconds@milliseconds:	
  2452                           ; 2 bytes @ 0x4
  2453                           
  2454  0074                     I2C1_SetBuffer@bufferSize:	
  2455                           ; 2 bytes @ 0x4
  2456                           
  2457  0074                     I2C1_SetCallback@cb:	
  2458                           ; 2 bytes @ 0x4
  2459                           
  2460                           
  2461                           ; 2 bytes @ 0x4
  2462  0074                     	ds	1
  2463  0075                     ??_I2C1_DO_SEND_ADR_WRITE:
  2464  0075                     I2C1_Open@address:	
  2465                           ; 1 bytes @ 0x5
  2466                           
  2467  0075                     I2C1_Close@returnValue:	
  2468                           ; 1 bytes @ 0x5
  2469                           
  2470                           
  2471                           ; 1 bytes @ 0x5
  2472  0075                     	ds	1
  2473  0076                     ??_PIN_MANAGER_Initialize:
  2474  0076                     ??_DELAY_milliseconds:	
  2475                           ; 1 bytes @ 0x6
  2476                           
  2477  0076                     ??_IOCBF7_SetInterruptHandler:	
  2478                           ; 1 bytes @ 0x6
  2479                           
  2480  0076                     ??_EPWM2_LoadDutyValue:	
  2481                           ; 1 bytes @ 0x6
  2482                           
  2483  0076                     ??_EPWM1_LoadDutyValue:	
  2484                           ; 1 bytes @ 0x6
  2485                           
  2486  0076                     ??_I2C1_SetBuffer:	
  2487                           ; 1 bytes @ 0x6
  2488                           
  2489  0076                     ??_SYSTEM_Initialize:	
  2490                           ; 1 bytes @ 0x6
  2491                           
  2492  0076                     ??_PWM4_LoadDutyValue:	
  2493                           ; 1 bytes @ 0x6
  2494                           
  2495  0076                     I2C1_Open@returnValue:	
  2496                           ; 1 bytes @ 0x6
  2497                           
  2498  0076                     I2C1_SetCallback@ptr:	
  2499                           ; 1 bytes @ 0x6
  2500                           
  2501                           
  2502                           ; 1 bytes @ 0x6
  2503  0076                     	ds	1
  2504  0077                     ??_I2C1_SetCallback:
  2505  0077                     I2C1_SetBuffer@buffer:	
  2506                           ; 1 bytes @ 0x7
  2507                           
  2508                           
  2509                           ; 1 bytes @ 0x7
  2510  0077                     	ds	1
  2511  0078                     ??_rd1RegCompleteHandler:
  2512  0078                     ??_I2C1_MasterWrite:	
  2513                           ; 1 bytes @ 0x8
  2514                           
  2515  0078                     ??_rd2RegCompleteHandler:	
  2516                           ; 1 bytes @ 0x8
  2517                           
  2518  0078                     ??_wr1RegCompleteHandler:	
  2519                           ; 1 bytes @ 0x8
  2520                           
  2521  0078                     ??_wr2RegCompleteHandler:	
  2522                           ; 1 bytes @ 0x8
  2523                           
  2524  0078                     ??_rdBlkRegCompleteHandler:	
  2525                           ; 1 bytes @ 0x8
  2526                           
  2527  0078                     ??_I2C1_CallbackReturnStop:	
  2528                           ; 1 bytes @ 0x8
  2529                           
  2530  0078                     ??_I2C1_CallbackReturnReset:	
  2531                           ; 1 bytes @ 0x8
  2532                           
  2533  0078                     ??_I2C1_Poller:	
  2534                           ; 1 bytes @ 0x8
  2535                           
  2536  0078                     ??_wr1RegCompleteHandler@i2c_simple_master$F1258:	
  2537                           ; 1 bytes @ 0x8
  2538                           
  2539  0078                     ??_rd1RegCompleteHandler@i2c_simple_master$F1268:	
  2540                           ; 1 bytes @ 0x8
  2541                           
  2542  0078                     ??_rd2RegCompleteHandler@i2c_simple_master$F1276:	
  2543                           ; 1 bytes @ 0x8
  2544                           
  2545  0078                     ??_wr2RegCompleteHandler@i2c_simple_master$F1282:	
  2546                           ; 1 bytes @ 0x8
  2547                           
  2548  0078                     ??_rdBlkRegCompleteHandler@i2c_simple_master$F1288:	
  2549                           ; 1 bytes @ 0x8
  2550                           
  2551                           
  2552                           	psect	cstackBANK0
  2553  003D                     __pcstackBANK0:	
  2554                           ; 1 bytes @ 0x8
  2555                           
  2556  003D                     I2C1_SetCallback@idx:
  2557                           
  2558                           ; 1 bytes @ 0x0
  2559  003D                     	ds	1
  2560  003E                     ?_I2C1_SetDataCompleteCallback:
  2561  003E                     ?_I2C1_SetAddressNackCallback:	
  2562                           ; 1 bytes @ 0x1
  2563                           
  2564  003E                     I2C1_SetDataCompleteCallback@cb:	
  2565                           ; 1 bytes @ 0x1
  2566                           
  2567  003E                     I2C1_SetAddressNackCallback@cb:	
  2568                           ; 2 bytes @ 0x1
  2569                           
  2570                           
  2571                           ; 2 bytes @ 0x1
  2572  003E                     	ds	2
  2573  0040                     I2C1_SetDataCompleteCallback@ptr:
  2574  0040                     I2C1_SetAddressNackCallback@ptr:	
  2575                           ; 1 bytes @ 0x3
  2576                           
  2577                           
  2578                           ; 1 bytes @ 0x3
  2579  0040                     	ds	1
  2580  0041                     ??_I2C1_SetDataCompleteCallback:
  2581  0041                     ??_I2C1_SetAddressNackCallback:	
  2582                           ; 1 bytes @ 0x4
  2583                           
  2584                           
  2585                           ; 1 bytes @ 0x4
  2586  0041                     	ds	1
  2587  0042                     ?_rd1RegCompleteHandler:
  2588  0042                     ?_rd2RegCompleteHandler:	
  2589                           ; 1 bytes @ 0x5
  2590                           
  2591  0042                     ?_wr1RegCompleteHandler:	
  2592                           ; 1 bytes @ 0x5
  2593                           
  2594  0042                     ?_wr2RegCompleteHandler:	
  2595                           ; 1 bytes @ 0x5
  2596                           
  2597  0042                     ?_rdBlkRegCompleteHandler:	
  2598                           ; 1 bytes @ 0x5
  2599                           
  2600  0042                     ?_I2C1_CallbackReturnStop:	
  2601                           ; 1 bytes @ 0x5
  2602                           
  2603  0042                     ?_I2C1_CallbackReturnReset:	
  2604                           ; 1 bytes @ 0x5
  2605                           
  2606  0042                     ?_wr1RegCompleteHandler@i2c_simple_master$F1258:	
  2607                           ; 1 bytes @ 0x5
  2608                           
  2609  0042                     ?_rd1RegCompleteHandler@i2c_simple_master$F1268:	
  2610                           ; 1 bytes @ 0x5
  2611                           
  2612  0042                     ?_rd2RegCompleteHandler@i2c_simple_master$F1276:	
  2613                           ; 1 bytes @ 0x5
  2614                           
  2615  0042                     ?_wr2RegCompleteHandler@i2c_simple_master$F1282:	
  2616                           ; 1 bytes @ 0x5
  2617                           
  2618  0042                     ?_rdBlkRegCompleteHandler@i2c_simple_master$F1288:	
  2619                           ; 1 bytes @ 0x5
  2620                           
  2621  0042                     rd1RegCompleteHandler@ptr:	
  2622                           ; 1 bytes @ 0x5
  2623                           
  2624  0042                     rd2RegCompleteHandler@ptr:	
  2625                           ; 1 bytes @ 0x5
  2626                           
  2627  0042                     wr1RegCompleteHandler@ptr:	
  2628                           ; 1 bytes @ 0x5
  2629                           
  2630  0042                     wr2RegCompleteHandler@ptr:	
  2631                           ; 1 bytes @ 0x5
  2632                           
  2633  0042                     rdBlkRegCompleteHandler@ptr:	
  2634                           ; 1 bytes @ 0x5
  2635                           
  2636  0042                     I2C1_CallbackReturnStop@funPtr:	
  2637                           ; 1 bytes @ 0x5
  2638                           
  2639  0042                     I2C1_CallbackReturnReset@funPtr:	
  2640                           ; 1 bytes @ 0x5
  2641                           
  2642  0042                     wr1RegCompleteHandler@i2c_simple_master$F1258@p:	
  2643                           ; 1 bytes @ 0x5
  2644                           
  2645  0042                     rd1RegCompleteHandler@i2c_simple_master$F1268@p:	
  2646                           ; 1 bytes @ 0x5
  2647                           
  2648  0042                     rd2RegCompleteHandler@i2c_simple_master$F1276@p:	
  2649                           ; 1 bytes @ 0x5
  2650                           
  2651  0042                     wr2RegCompleteHandler@i2c_simple_master$F1282@p:	
  2652                           ; 1 bytes @ 0x5
  2653                           
  2654  0042                     rdBlkRegCompleteHandler@i2c_simple_master$F1288@p:	
  2655                           ; 1 bytes @ 0x5
  2656                           
  2657                           
  2658                           ; 1 bytes @ 0x5
  2659  0042                     	ds	1
  2660  0043                     ??_I2C1_DO_TX:
  2661  0043                     ??_I2C1_DO_RX:	
  2662                           ; 1 bytes @ 0x6
  2663                           
  2664  0043                     ??_I2C1_DO_TX_EMPTY:	
  2665                           ; 1 bytes @ 0x6
  2666                           
  2667  0043                     ??_I2C1_DO_ADDRESS_NACK:	
  2668                           ; 1 bytes @ 0x6
  2669                           
  2670                           
  2671                           ; 1 bytes @ 0x6
  2672  0043                     	ds	3
  2673  0046                     ??_I2C1_MasterFsm:
  2674                           
  2675                           ; 1 bytes @ 0x9
  2676  0046                     	ds	3
  2677  0049                     ??_I2C1_MasterOperation:
  2678                           
  2679                           ; 1 bytes @ 0xC
  2680  0049                     	ds	1
  2681  004A                     I2C1_MasterOperation@read:
  2682                           
  2683                           ; 1 bytes @ 0xD
  2684  004A                     	ds	1
  2685  004B                     I2C1_MasterOperation@returnValue:
  2686                           
  2687                           ; 1 bytes @ 0xE
  2688  004B                     	ds	1
  2689  004C                     ?_I2C1_Read1ByteRegister:
  2690  004C                     ?_I2C1_Write1ByteRegister:	
  2691                           ; 1 bytes @ 0xF
  2692                           
  2693  004C                     I2C1_Read1ByteRegister@reg:	
  2694                           ; 1 bytes @ 0xF
  2695                           
  2696  004C                     I2C1_Write1ByteRegister@reg:	
  2697                           ; 1 bytes @ 0xF
  2698                           
  2699                           
  2700                           ; 1 bytes @ 0xF
  2701  004C                     	ds	1
  2702  004D                     ??_I2C1_Read1ByteRegister:
  2703  004D                     I2C1_Write1ByteRegister@data:	
  2704                           ; 1 bytes @ 0x10
  2705                           
  2706                           
  2707                           ; 1 bytes @ 0x10
  2708  004D                     	ds	1
  2709  004E                     ??_I2C1_Write1ByteRegister:
  2710  004E                     I2C1_Read1ByteRegister@address:	
  2711                           ; 1 bytes @ 0x11
  2712                           
  2713                           
  2714                           ; 1 bytes @ 0x11
  2715  004E                     	ds	1
  2716  004F                     I2C1_Read1ByteRegister@returnValue:
  2717  004F                     I2C1_Write1ByteRegister@address:	
  2718                           ; 1 bytes @ 0x12
  2719                           
  2720                           
  2721                           ; 1 bytes @ 0x12
  2722  004F                     	ds	1
  2723  0050                     ??_main:
  2724                           
  2725                           ; 1 bytes @ 0x13
  2726  0050                     	ds	2
  2727  0052                     main@data:
  2728                           
  2729                           ; 1 bytes @ 0x15
  2730  0052                     	ds	1
  2731  0053                     main@data_x:
  2732                           
  2733                           ; 1 bytes @ 0x16
  2734  0053                     	ds	1
  2735  0054                     main@data_y:
  2736                           
  2737                           ; 1 bytes @ 0x17
  2738  0054                     	ds	1
  2739  0055                     main@data_z:
  2740                           
  2741                           ; 1 bytes @ 0x18
  2742  0055                     	ds	1
  2743                           
  2744                           	psect	maintext
  2745  0021                     __pmaintext:	
  2746 ;;
  2747 ;;Main: autosize = 0, tempsize = 2, incstack = 0, save=0
  2748 ;;
  2749 ;; *************** function _main *****************
  2750 ;; Defined at:
  2751 ;;		line 55 in file "main.c"
  2752 ;; Parameters:    Size  Location     Type
  2753 ;;		None
  2754 ;; Auto vars:     Size  Location     Type
  2755 ;;  dutycycle       2    0        unsigned short 
  2756 ;;  data_z          1   24[BANK0 ] char 
  2757 ;;  data_y          1   23[BANK0 ] char 
  2758 ;;  data_x          1   22[BANK0 ] char 
  2759 ;;  data            1   21[BANK0 ] unsigned char 
  2760 ;; Return value:  Size  Location     Type
  2761 ;;                  1    wreg      void 
  2762 ;; Registers used:
  2763 ;;		wreg, fsr0l, fsr0h, fsr1l, fsr1h, status,2, status,0, pclath, cstack
  2764 ;; Tracked objects:
  2765 ;;		On entry : B1F/0
  2766 ;;		On exit  : 0/0
  2767 ;;		Unchanged: 0/0
  2768 ;; Data sizes:     COMMON   BANK0   BANK1   BANK2   BANK3   BANK4   BANK5   BANK6   BANK7   BANK8   BANK9  BANK10  BANK1
      +1  BANK12
  2769 ;;      Params:         0       0       0       0       0       0       0       0       0       0       0       0       
      +0       0
  2770 ;;      Locals:         0       4       0       0       0       0       0       0       0       0       0       0       
      +0       0
  2771 ;;      Temps:          0       2       0       0       0       0       0       0       0       0       0       0       
      +0       0
  2772 ;;      Totals:         0       6       0       0       0       0       0       0       0       0       0       0       
      +0       0
  2773 ;;Total ram usage:        6 bytes
  2774 ;; Hardware stack levels required when called: 14
  2775 ;; This function calls:
  2776 ;;		_DELAY_milliseconds
  2777 ;;		_EPWM1_LoadDutyValue
  2778 ;;		_EPWM2_LoadDutyValue
  2779 ;;		_I2C1_Read1ByteRegister
  2780 ;;		_I2C1_Write1ByteRegister
  2781 ;;		_IOCBF7_SetInterruptHandler
  2782 ;;		_PWM4_LoadDutyValue
  2783 ;;		_SYSTEM_Initialize
  2784 ;; This function is called by:
  2785 ;;		Startup code after reset
  2786 ;; This function uses a non-reentrant model
  2787 ;;
  2788                           
  2789                           
  2790                           ;psect for function _main
  2791  0021                     _main:
  2792  0021                     l3588:	
  2793                           ;incstack = 0
  2794                           ; Regs used in _main: [wreg-fsr1h+status,2+status,0+pclath+cstack]
  2795                           
  2796                           
  2797                           ;main.c: 58:     SYSTEM_Initialize();
  2798  0021  3184  2416  3180   	fcall	_SYSTEM_Initialize
  2799                           
  2800                           ;main.c: 61:     IOCBF7_SetInterruptHandler(ButtonInterrupt);
  2801  0024  30A9               	movlw	low _ButtonInterrupt
  2802  0025  00F4               	movwf	IOCBF7_SetInterruptHandler@InterruptHandler
  2803  0026  3003               	movlw	high _ButtonInterrupt
  2804  0027  00F5               	movwf	IOCBF7_SetInterruptHandler@InterruptHandler+1
  2805  0028  3186  2647  3180   	fcall	_IOCBF7_SetInterruptHandler
  2806  002B                     l3590:
  2807                           
  2808                           ;main.c: 67:     (INTCONbits.GIE = 1);
  2809  002B  178B               	bsf	11,7	;volatile
  2810  002C                     l3592:
  2811                           
  2812                           ;main.c: 70:     (INTCONbits.PEIE = 1);
  2813  002C  170B               	bsf	11,6	;volatile
  2814  002D                     l3594:
  2815  002D                     l3596:
  2816                           
  2817                           ;main.c: 82:     PWM4_LoadDutyValue(dutycycle);
  2818  002D  3000               	movlw	0
  2819  002E  00F4               	movwf	PWM4_LoadDutyValue@dutyValue
  2820  002F  00F5               	movwf	PWM4_LoadDutyValue@dutyValue+1
  2821  0030  3184  242F  3180   	fcall	_PWM4_LoadDutyValue
  2822  0033                     l3598:
  2823                           
  2824                           ;main.c: 83:     EPWM2_LoadDutyValue(dutycycle);
  2825  0033  3000               	movlw	0
  2826  0034  00F4               	movwf	EPWM2_LoadDutyValue@dutyValue
  2827  0035  00F5               	movwf	EPWM2_LoadDutyValue@dutyValue+1
  2828  0036  3184  2446  3180   	fcall	_EPWM2_LoadDutyValue
  2829  0039                     l3600:
  2830                           
  2831                           ;main.c: 84:     EPWM1_LoadDutyValue(dutycycle);
  2832  0039  3000               	movlw	0
  2833  003A  00F4               	movwf	EPWM1_LoadDutyValue@dutyValue
  2834  003B  00F5               	movwf	EPWM1_LoadDutyValue@dutyValue+1
  2835  003C  3184  245D  3180   	fcall	_EPWM1_LoadDutyValue
  2836  003F                     l3602:
  2837                           
  2838                           ;main.c: 86:     data = I2C1_Read1ByteRegister(0x0E, 0x0F);
  2839  003F  300F               	movlw	15
  2840  0040  0020               	movlb	0	; select bank0
  2841  0041  00D0               	movwf	??_main
  2842  0042  0850               	movf	??_main,w
  2843  0043  00CC               	movwf	I2C1_Read1ByteRegister@reg
  2844  0044  300E               	movlw	14
  2845  0045  3182  2227  3180   	fcall	_I2C1_Read1ByteRegister
  2846  0048  0020               	movlb	0	; select bank0
  2847  0049  00D1               	movwf	??_main+1
  2848  004A  0851               	movf	??_main+1,w
  2849  004B  00D2               	movwf	main@data
  2850  004C                     l3604:
  2851                           
  2852                           ;main.c: 88:     if(data == 0x35)
  2853  004C  3035               	movlw	53
  2854  004D  0652               	xorwf	main@data,w
  2855  004E  1D03               	btfss	3,2
  2856  004F  2851               	goto	u1411
  2857  0050  2852               	goto	u1410
  2858  0051                     u1411:
  2859  0051  285A               	goto	l3608
  2860  0052                     u1410:
  2861  0052                     l3606:
  2862                           
  2863                           ;main.c: 89:         PWM4_LoadDutyValue(160);
  2864  0052  30A0               	movlw	160
  2865  0053  00F4               	movwf	PWM4_LoadDutyValue@dutyValue
  2866  0054  3000               	movlw	0
  2867  0055  00F5               	movwf	PWM4_LoadDutyValue@dutyValue+1
  2868  0056  3184  242F  3180   	fcall	_PWM4_LoadDutyValue
  2869  0059  2861               	goto	l90
  2870  005A                     l3608:
  2871                           
  2872                           ;main.c: 91:         EPWM2_LoadDutyValue(160);
  2873  005A  30A0               	movlw	160
  2874  005B  00F4               	movwf	EPWM2_LoadDutyValue@dutyValue
  2875  005C  3000               	movlw	0
  2876  005D  00F5               	movwf	EPWM2_LoadDutyValue@dutyValue+1
  2877  005E  3184  2446  3180   	fcall	_EPWM2_LoadDutyValue
  2878  0061                     l90:
  2879                           
  2880                           ;main.c: 92:     DELAY_milliseconds(3000);
  2881  0061  30B8               	movlw	184
  2882  0062  00F4               	movwf	DELAY_milliseconds@milliseconds
  2883  0063  300B               	movlw	11
  2884  0064  00F5               	movwf	DELAY_milliseconds@milliseconds+1
  2885  0065  3184  24B9  3180   	fcall	_DELAY_milliseconds
  2886  0068                     l3610:
  2887                           
  2888                           ;main.c: 97:     I2C1_Write1ByteRegister(0x0E, 0x1D, 0b10000000);
  2889  0068  301D               	movlw	29
  2890  0069  0020               	movlb	0	; select bank0
  2891  006A  00D0               	movwf	??_main
  2892  006B  0850               	movf	??_main,w
  2893  006C  00CC               	movwf	I2C1_Write1ByteRegister@reg
  2894  006D  3080               	movlw	128
  2895  006E  00D1               	movwf	??_main+1
  2896  006F  0851               	movf	??_main+1,w
  2897  0070  00CD               	movwf	I2C1_Write1ByteRegister@data
  2898  0071  300E               	movlw	14
  2899  0072  3182  225E  3180   	fcall	_I2C1_Write1ByteRegister
  2900  0075                     l3612:
  2901                           
  2902                           ;main.c: 98:     DELAY_milliseconds(1000);
  2903  0075  30E8               	movlw	232
  2904  0076  00F4               	movwf	DELAY_milliseconds@milliseconds
  2905  0077  3003               	movlw	3
  2906  0078  00F5               	movwf	DELAY_milliseconds@milliseconds+1
  2907  0079  3184  24B9  3180   	fcall	_DELAY_milliseconds
  2908                           
  2909                           ;main.c: 101:     I2C1_Write1ByteRegister(0x0E, 0x1E, 0b00101000);
  2910  007C  301E               	movlw	30
  2911  007D  0020               	movlb	0	; select bank0
  2912  007E  00D0               	movwf	??_main
  2913  007F  0850               	movf	??_main,w
  2914  0080  00CC               	movwf	I2C1_Write1ByteRegister@reg
  2915  0081  3028               	movlw	40
  2916  0082  00D1               	movwf	??_main+1
  2917  0083  0851               	movf	??_main+1,w
  2918  0084  00CD               	movwf	I2C1_Write1ByteRegister@data
  2919  0085  300E               	movlw	14
  2920  0086  3182  225E  3180   	fcall	_I2C1_Write1ByteRegister
  2921                           
  2922                           ;main.c: 102:     I2C1_Write1ByteRegister(0x0E, 0x1F, 0b10111111);
  2923  0089  301F               	movlw	31
  2924  008A  0020               	movlb	0	; select bank0
  2925  008B  00D0               	movwf	??_main
  2926  008C  0850               	movf	??_main,w
  2927  008D  00CC               	movwf	I2C1_Write1ByteRegister@reg
  2928  008E  30BF               	movlw	191
  2929  008F  00D1               	movwf	??_main+1
  2930  0090  0851               	movf	??_main+1,w
  2931  0091  00CD               	movwf	I2C1_Write1ByteRegister@data
  2932  0092  300E               	movlw	14
  2933  0093  3182  225E  3180   	fcall	_I2C1_Write1ByteRegister
  2934                           
  2935                           ;main.c: 103:     I2C1_Write1ByteRegister(0x0E, 0x1B, 0b00000000);
  2936  0096  301B               	movlw	27
  2937  0097  0020               	movlb	0	; select bank0
  2938  0098  00D0               	movwf	??_main
  2939  0099  0850               	movf	??_main,w
  2940  009A  00CC               	movwf	I2C1_Write1ByteRegister@reg
  2941  009B  01CD               	clrf	I2C1_Write1ByteRegister@data
  2942  009C  300E               	movlw	14
  2943  009D  3182  225E  3180   	fcall	_I2C1_Write1ByteRegister
  2944                           
  2945                           ;main.c: 104:     I2C1_Write1ByteRegister(0x0E, 0x1B, 0b00000010);
  2946  00A0  301B               	movlw	27
  2947  00A1  0020               	movlb	0	; select bank0
  2948  00A2  00D0               	movwf	??_main
  2949  00A3  0850               	movf	??_main,w
  2950  00A4  00CC               	movwf	I2C1_Write1ByteRegister@reg
  2951  00A5  3002               	movlw	2
  2952  00A6  00D1               	movwf	??_main+1
  2953  00A7  0851               	movf	??_main+1,w
  2954  00A8  00CD               	movwf	I2C1_Write1ByteRegister@data
  2955  00A9  300E               	movlw	14
  2956  00AA  3182  225E  3180   	fcall	_I2C1_Write1ByteRegister
  2957                           
  2958                           ;main.c: 105:     I2C1_Write1ByteRegister(0x0E, 0x1B, 0b10000010);
  2959  00AD  301B               	movlw	27
  2960  00AE  0020               	movlb	0	; select bank0
  2961  00AF  00D0               	movwf	??_main
  2962  00B0  0850               	movf	??_main,w
  2963  00B1  00CC               	movwf	I2C1_Write1ByteRegister@reg
  2964  00B2  3082               	movlw	130
  2965  00B3  00D1               	movwf	??_main+1
  2966  00B4  0851               	movf	??_main+1,w
  2967  00B5  00CD               	movwf	I2C1_Write1ByteRegister@data
  2968  00B6  300E               	movlw	14
  2969  00B7  3182  225E  3180   	fcall	_I2C1_Write1ByteRegister
  2970  00BA  301B               	movlw	27
  2971  00BB  0020               	movlb	0	; select bank0
  2972  00BC  00D0               	movwf	??_main
  2973  00BD  0850               	movf	??_main,w
  2974  00BE  00CC               	movwf	I2C1_Read1ByteRegister@reg
  2975  00BF  300E               	movlw	14
  2976  00C0  3182  2227  3180   	fcall	_I2C1_Read1ByteRegister
  2977  00C3                     l91:	
  2978                           ;main.c: 109:     int8_t data_x;;main.c: 110:     int8_t data_y;;main.c: 111:     int8_t
      +                           data_z;;main.c: 113:     while (1)
  2979                           
  2980                           
  2981                           ;main.c: 114:     {;main.c: 116:         data_x = I2C1_Read1ByteRegister(0x0E, 0x07);
  2982  00C3  3007               	movlw	7
  2983  00C4  0020               	movlb	0	; select bank0
  2984  00C5  00D0               	movwf	??_main
  2985  00C6  0850               	movf	??_main,w
  2986  00C7  00CC               	movwf	I2C1_Read1ByteRegister@reg
  2987  00C8  300E               	movlw	14
  2988  00C9  3182  2227  3180   	fcall	_I2C1_Read1ByteRegister
  2989  00CC  0020               	movlb	0	; select bank0
  2990  00CD  00D1               	movwf	??_main+1
  2991  00CE  0851               	movf	??_main+1,w
  2992  00CF  00D3               	movwf	main@data_x
  2993                           
  2994                           ;main.c: 117:         data_y = I2C1_Read1ByteRegister(0x0E, 0x09);
  2995  00D0  3009               	movlw	9
  2996  00D1  00D0               	movwf	??_main
  2997  00D2  0850               	movf	??_main,w
  2998  00D3  00CC               	movwf	I2C1_Read1ByteRegister@reg
  2999  00D4  300E               	movlw	14
  3000  00D5  3182  2227  3180   	fcall	_I2C1_Read1ByteRegister
  3001  00D8  0020               	movlb	0	; select bank0
  3002  00D9  00D1               	movwf	??_main+1
  3003  00DA  0851               	movf	??_main+1,w
  3004  00DB  00D4               	movwf	main@data_y
  3005                           
  3006                           ;main.c: 118:         data_z = I2C1_Read1ByteRegister(0x0E, 0x0B);
  3007  00DC  300B               	movlw	11
  3008  00DD  00D0               	movwf	??_main
  3009  00DE  0850               	movf	??_main,w
  3010  00DF  00CC               	movwf	I2C1_Read1ByteRegister@reg
  3011  00E0  300E               	movlw	14
  3012  00E1  3182  2227  3180   	fcall	_I2C1_Read1ByteRegister
  3013  00E4  0020               	movlb	0	; select bank0
  3014  00E5  00D1               	movwf	??_main+1
  3015  00E6  0851               	movf	??_main+1,w
  3016  00E7  00D5               	movwf	main@data_z
  3017  00E8                     l3614:
  3018                           
  3019                           ;main.c: 120:         if (data_x > 0)
  3020  00E8  0853               	movf	main@data_x,w
  3021  00E9  3A80               	xorlw	128
  3022  00EA  3E7F               	addlw	-129
  3023  00EB  1C03               	skipc
  3024  00EC  28EE               	goto	u1421
  3025  00ED  28EF               	goto	u1420
  3026  00EE                     u1421:
  3027  00EE  28F8               	goto	l3618
  3028  00EF                     u1420:
  3029  00EF                     l3616:
  3030                           
  3031                           ;main.c: 121:             EPWM1_LoadDutyValue(data_x);
  3032  00EF  0853               	movf	main@data_x,w
  3033  00F0  00F4               	movwf	EPWM1_LoadDutyValue@dutyValue
  3034  00F1  01F5               	clrf	EPWM1_LoadDutyValue@dutyValue+1
  3035  00F2  1BF4               	btfsc	EPWM1_LoadDutyValue@dutyValue,7
  3036  00F3  03F5               	decf	EPWM1_LoadDutyValue@dutyValue+1,f
  3037  00F4  3184  245D  3180   	fcall	_EPWM1_LoadDutyValue
  3038  00F7  2909               	goto	l3620
  3039  00F8                     l3618:
  3040                           
  3041                           ;main.c: 123:             EPWM1_LoadDutyValue(data_x * (-1));
  3042  00F8  0853               	movf	main@data_x,w
  3043  00F9  00D0               	movwf	??_main
  3044  00FA  01D1               	clrf	??_main+1
  3045  00FB  1BD0               	btfsc	??_main,7
  3046  00FC  03D1               	decf	??_main+1,f
  3047  00FD  09D0               	comf	??_main,f
  3048  00FE  09D1               	comf	??_main+1,f
  3049  00FF  0AD0               	incf	??_main,f
  3050  0100  1903               	skipnz
  3051  0101  0AD1               	incf	??_main+1,f
  3052  0102  0850               	movf	??_main,w
  3053  0103  00F4               	movwf	EPWM1_LoadDutyValue@dutyValue
  3054  0104  0851               	movf	??_main+1,w
  3055  0105  00F5               	movwf	EPWM1_LoadDutyValue@dutyValue+1
  3056  0106  3184  245D  3180   	fcall	_EPWM1_LoadDutyValue
  3057  0109                     l3620:
  3058                           
  3059                           ;main.c: 125:         if (data_y > 0)
  3060  0109  0020               	movlb	0	; select bank0
  3061  010A  0854               	movf	main@data_y,w
  3062  010B  3A80               	xorlw	128
  3063  010C  3E7F               	addlw	-129
  3064  010D  1C03               	skipc
  3065  010E  2910               	goto	u1431
  3066  010F  2911               	goto	u1430
  3067  0110                     u1431:
  3068  0110  291A               	goto	l3624
  3069  0111                     u1430:
  3070  0111                     l3622:
  3071                           
  3072                           ;main.c: 126:             EPWM2_LoadDutyValue(data_y);
  3073  0111  0854               	movf	main@data_y,w
  3074  0112  00F4               	movwf	EPWM2_LoadDutyValue@dutyValue
  3075  0113  01F5               	clrf	EPWM2_LoadDutyValue@dutyValue+1
  3076  0114  1BF4               	btfsc	EPWM2_LoadDutyValue@dutyValue,7
  3077  0115  03F5               	decf	EPWM2_LoadDutyValue@dutyValue+1,f
  3078  0116  3184  2446  3180   	fcall	_EPWM2_LoadDutyValue
  3079  0119  292B               	goto	l3626
  3080  011A                     l3624:
  3081                           
  3082                           ;main.c: 128:             EPWM2_LoadDutyValue(data_y * (-1));
  3083  011A  0854               	movf	main@data_y,w
  3084  011B  00D0               	movwf	??_main
  3085  011C  01D1               	clrf	??_main+1
  3086  011D  1BD0               	btfsc	??_main,7
  3087  011E  03D1               	decf	??_main+1,f
  3088  011F  09D0               	comf	??_main,f
  3089  0120  09D1               	comf	??_main+1,f
  3090  0121  0AD0               	incf	??_main,f
  3091  0122  1903               	skipnz
  3092  0123  0AD1               	incf	??_main+1,f
  3093  0124  0850               	movf	??_main,w
  3094  0125  00F4               	movwf	EPWM2_LoadDutyValue@dutyValue
  3095  0126  0851               	movf	??_main+1,w
  3096  0127  00F5               	movwf	EPWM2_LoadDutyValue@dutyValue+1
  3097  0128  3184  2446  3180   	fcall	_EPWM2_LoadDutyValue
  3098  012B                     l3626:
  3099                           
  3100                           ;main.c: 130:         if (data_z > 0)
  3101  012B  0020               	movlb	0	; select bank0
  3102  012C  0855               	movf	main@data_z,w
  3103  012D  3A80               	xorlw	128
  3104  012E  3E7F               	addlw	-129
  3105  012F  1C03               	skipc
  3106  0130  2932               	goto	u1441
  3107  0131  2933               	goto	u1440
  3108  0132                     u1441:
  3109  0132  293C               	goto	l3630
  3110  0133                     u1440:
  3111  0133                     l3628:
  3112                           
  3113                           ;main.c: 131:             PWM4_LoadDutyValue(data_z);
  3114  0133  0855               	movf	main@data_z,w
  3115  0134  00F4               	movwf	PWM4_LoadDutyValue@dutyValue
  3116  0135  01F5               	clrf	PWM4_LoadDutyValue@dutyValue+1
  3117  0136  1BF4               	btfsc	PWM4_LoadDutyValue@dutyValue,7
  3118  0137  03F5               	decf	PWM4_LoadDutyValue@dutyValue+1,f
  3119  0138  3184  242F  3180   	fcall	_PWM4_LoadDutyValue
  3120  013B  28C3               	goto	l91
  3121  013C                     l3630:
  3122                           
  3123                           ;main.c: 133:             PWM4_LoadDutyValue(data_z * (-1));
  3124  013C  0855               	movf	main@data_z,w
  3125  013D  00D0               	movwf	??_main
  3126  013E  01D1               	clrf	??_main+1
  3127  013F  1BD0               	btfsc	??_main,7
  3128  0140  03D1               	decf	??_main+1,f
  3129  0141  09D0               	comf	??_main,f
  3130  0142  09D1               	comf	??_main+1,f
  3131  0143  0AD0               	incf	??_main,f
  3132  0144  1903               	skipnz
  3133  0145  0AD1               	incf	??_main+1,f
  3134  0146  0850               	movf	??_main,w
  3135  0147  00F4               	movwf	PWM4_LoadDutyValue@dutyValue
  3136  0148  0851               	movf	??_main+1,w
  3137  0149  00F5               	movwf	PWM4_LoadDutyValue@dutyValue+1
  3138  014A  3184  242F  3180   	fcall	_PWM4_LoadDutyValue
  3139  014D  28C3               	goto	l91
  3140  014E  3180  2813         	ljmp	start
  3141  0150                     __end_of_main:
  3142                           
  3143                           	psect	text1
  3144  0416                     __ptext1:	
  3145 ;; *************** function _SYSTEM_Initialize *****************
  3146 ;; Defined at:
  3147 ;;		line 50 in file "mcc_generated_files/mcc.c"
  3148 ;; Parameters:    Size  Location     Type
  3149 ;;		None
  3150 ;; Auto vars:     Size  Location     Type
  3151 ;;		None
  3152 ;; Return value:  Size  Location     Type
  3153 ;;                  1    wreg      void 
  3154 ;; Registers used:
  3155 ;;		wreg, status,2, status,0, pclath, cstack
  3156 ;; Tracked objects:
  3157 ;;		On entry : 0/0
  3158 ;;		On exit  : 0/0
  3159 ;;		Unchanged: 0/0
  3160 ;; Data sizes:     COMMON   BANK0   BANK1   BANK2   BANK3   BANK4   BANK5   BANK6   BANK7   BANK8   BANK9  BANK10  BANK1
      +1  BANK12
  3161 ;;      Params:         0       0       0       0       0       0       0       0       0       0       0       0       
      +0       0
  3162 ;;      Locals:         0       0       0       0       0       0       0       0       0       0       0       0       
      +0       0
  3163 ;;      Temps:          0       0       0       0       0       0       0       0       0       0       0       0       
      +0       0
  3164 ;;      Totals:         0       0       0       0       0       0       0       0       0       0       0       0       
      +0       0
  3165 ;;Total ram usage:        0 bytes
  3166 ;; Hardware stack levels used: 1
  3167 ;; Hardware stack levels required when called: 7
  3168 ;; This function calls:
  3169 ;;		_EPWM1_Initialize
  3170 ;;		_EPWM2_Initialize
  3171 ;;		_I2C1_Initialize
  3172 ;;		_OSCILLATOR_Initialize
  3173 ;;		_PIN_MANAGER_Initialize
  3174 ;;		_PWM4_Initialize
  3175 ;;		_TMR2_Initialize
  3176 ;;		_WDT_Initialize
  3177 ;; This function is called by:
  3178 ;;		_main
  3179 ;; This function uses a non-reentrant model
  3180 ;;
  3181                           
  3182                           
  3183                           ;psect for function _SYSTEM_Initialize
  3184  0416                     _SYSTEM_Initialize:
  3185  0416                     l2924:	
  3186                           ;incstack = 0
  3187                           ; Regs used in _SYSTEM_Initialize: [wreg+status,2+status,0+pclath+cstack]
  3188                           
  3189                           
  3190                           ;mcc_generated_files/mcc.c: 53:     I2C1_Initialize();
  3191  0416  3186  2603  3184   	fcall	_I2C1_Initialize
  3192                           
  3193                           ;mcc_generated_files/mcc.c: 54:     PIN_MANAGER_Initialize();
  3194  0419  3183  231A  3184   	fcall	_PIN_MANAGER_Initialize
  3195                           
  3196                           ;mcc_generated_files/mcc.c: 55:     OSCILLATOR_Initialize();
  3197  041C  3185  25ED  3184   	fcall	_OSCILLATOR_Initialize
  3198                           
  3199                           ;mcc_generated_files/mcc.c: 56:     WDT_Initialize();
  3200  041F  3186  2683  3184   	fcall	_WDT_Initialize
  3201                           
  3202                           ;mcc_generated_files/mcc.c: 57:     EPWM2_Initialize();
  3203  0422  3185  258D  3184   	fcall	_EPWM2_Initialize
  3204                           
  3205                           ;mcc_generated_files/mcc.c: 58:     EPWM1_Initialize();
  3206  0425  3185  259B  3184   	fcall	_EPWM1_Initialize
  3207                           
  3208                           ;mcc_generated_files/mcc.c: 59:     PWM4_Initialize();
  3209  0428  3185  25F9  3184   	fcall	_PWM4_Initialize
  3210                           
  3211                           ;mcc_generated_files/mcc.c: 60:     TMR2_Initialize();
  3212  042B  3186  261E  3184   	fcall	_TMR2_Initialize
  3213  042E                     l29:
  3214  042E  0008               	return
  3215  042F                     __end_of_SYSTEM_Initialize:
  3216                           
  3217                           	psect	text2
  3218  0683                     __ptext2:	
  3219 ;; *************** function _WDT_Initialize *****************
  3220 ;; Defined at:
  3221 ;;		line 77 in file "mcc_generated_files/mcc.c"
  3222 ;; Parameters:    Size  Location     Type
  3223 ;;		None
  3224 ;; Auto vars:     Size  Location     Type
  3225 ;;		None
  3226 ;; Return value:  Size  Location     Type
  3227 ;;                  1    wreg      void 
  3228 ;; Registers used:
  3229 ;;		wreg
  3230 ;; Tracked objects:
  3231 ;;		On entry : 0/0
  3232 ;;		On exit  : 0/0
  3233 ;;		Unchanged: 0/0
  3234 ;; Data sizes:     COMMON   BANK0   BANK1   BANK2   BANK3   BANK4   BANK5   BANK6   BANK7   BANK8   BANK9  BANK10  BANK1
      +1  BANK12
  3235 ;;      Params:         0       0       0       0       0       0       0       0       0       0       0       0       
      +0       0
  3236 ;;      Locals:         0       0       0       0       0       0       0       0       0       0       0       0       
      +0       0
  3237 ;;      Temps:          0       0       0       0       0       0       0       0       0       0       0       0       
      +0       0
  3238 ;;      Totals:         0       0       0       0       0       0       0       0       0       0       0       0       
      +0       0
  3239 ;;Total ram usage:        0 bytes
  3240 ;; Hardware stack levels used: 1
  3241 ;; Hardware stack levels required when called: 5
  3242 ;; This function calls:
  3243 ;;		Nothing
  3244 ;; This function is called by:
  3245 ;;		_SYSTEM_Initialize
  3246 ;; This function uses a non-reentrant model
  3247 ;;
  3248                           
  3249                           
  3250                           ;psect for function _WDT_Initialize
  3251  0683                     _WDT_Initialize:
  3252  0683                     l2822:	
  3253                           ;incstack = 0
  3254                           ; Regs used in _WDT_Initialize: [wreg]
  3255                           
  3256                           
  3257                           ;mcc_generated_files/mcc.c: 80:     WDTCON = 0x16;
  3258  0683  3016               	movlw	22
  3259  0684  0021               	movlb	1	; select bank1
  3260  0685  0097               	movwf	23	;volatile
  3261  0686                     l38:
  3262  0686  0008               	return
  3263  0687                     __end_of_WDT_Initialize:
  3264                           
  3265                           	psect	text3
  3266  061E                     __ptext3:	
  3267 ;; *************** function _TMR2_Initialize *****************
  3268 ;; Defined at:
  3269 ;;		line 62 in file "mcc_generated_files/tmr2.c"
  3270 ;; Parameters:    Size  Location     Type
  3271 ;;		None
  3272 ;; Auto vars:     Size  Location     Type
  3273 ;;		None
  3274 ;; Return value:  Size  Location     Type
  3275 ;;                  1    wreg      void 
  3276 ;; Registers used:
  3277 ;;		wreg, status,2
  3278 ;; Tracked objects:
  3279 ;;		On entry : 0/0
  3280 ;;		On exit  : 0/0
  3281 ;;		Unchanged: 0/0
  3282 ;; Data sizes:     COMMON   BANK0   BANK1   BANK2   BANK3   BANK4   BANK5   BANK6   BANK7   BANK8   BANK9  BANK10  BANK1
      +1  BANK12
  3283 ;;      Params:         0       0       0       0       0       0       0       0       0       0       0       0       
      +0       0
  3284 ;;      Locals:         0       0       0       0       0       0       0       0       0       0       0       0       
      +0       0
  3285 ;;      Temps:          0       0       0       0       0       0       0       0       0       0       0       0       
      +0       0
  3286 ;;      Totals:         0       0       0       0       0       0       0       0       0       0       0       0       
      +0       0
  3287 ;;Total ram usage:        0 bytes
  3288 ;; Hardware stack levels used: 1
  3289 ;; Hardware stack levels required when called: 5
  3290 ;; This function calls:
  3291 ;;		Nothing
  3292 ;; This function is called by:
  3293 ;;		_SYSTEM_Initialize
  3294 ;; This function uses a non-reentrant model
  3295 ;;
  3296                           
  3297                           
  3298                           ;psect for function _TMR2_Initialize
  3299  061E                     _TMR2_Initialize:
  3300  061E                     l2854:	
  3301                           ;incstack = 0
  3302                           ; Regs used in _TMR2_Initialize: [wreg+status,2]
  3303                           
  3304                           
  3305                           ;mcc_generated_files/tmr2.c: 67:     PR2 = 0x27;
  3306  061E  3027               	movlw	39
  3307  061F  0020               	movlb	0	; select bank0
  3308  0620  009B               	movwf	27	;volatile
  3309  0621                     l2856:
  3310                           
  3311                           ;mcc_generated_files/tmr2.c: 70:     TMR2 = 0x00;
  3312  0621  019A               	clrf	26	;volatile
  3313  0622                     l2858:
  3314                           
  3315                           ;mcc_generated_files/tmr2.c: 73:     PIR1bits.TMR2IF = 0;
  3316  0622  1091               	bcf	17,1	;volatile
  3317  0623                     l2860:
  3318                           
  3319                           ;mcc_generated_files/tmr2.c: 76:     T2CON = 0x07;
  3320  0623  3007               	movlw	7
  3321  0624  009C               	movwf	28	;volatile
  3322  0625                     l219:
  3323  0625  0008               	return
  3324  0626                     __end_of_TMR2_Initialize:
  3325                           
  3326                           	psect	text4
  3327  05F9                     __ptext4:	
  3328 ;; *************** function _PWM4_Initialize *****************
  3329 ;; Defined at:
  3330 ;;		line 64 in file "mcc_generated_files/pwm4.c"
  3331 ;; Parameters:    Size  Location     Type
  3332 ;;		None
  3333 ;; Auto vars:     Size  Location     Type
  3334 ;;		None
  3335 ;; Return value:  Size  Location     Type
  3336 ;;                  1    wreg      void 
  3337 ;; Registers used:
  3338 ;;		wreg, status,2, status,0
  3339 ;; Tracked objects:
  3340 ;;		On entry : 0/0
  3341 ;;		On exit  : 0/0
  3342 ;;		Unchanged: 0/0
  3343 ;; Data sizes:     COMMON   BANK0   BANK1   BANK2   BANK3   BANK4   BANK5   BANK6   BANK7   BANK8   BANK9  BANK10  BANK1
      +1  BANK12
  3344 ;;      Params:         0       0       0       0       0       0       0       0       0       0       0       0       
      +0       0
  3345 ;;      Locals:         0       0       0       0       0       0       0       0       0       0       0       0       
      +0       0
  3346 ;;      Temps:          0       0       0       0       0       0       0       0       0       0       0       0       
      +0       0
  3347 ;;      Totals:         0       0       0       0       0       0       0       0       0       0       0       0       
      +0       0
  3348 ;;Total ram usage:        0 bytes
  3349 ;; Hardware stack levels used: 1
  3350 ;; Hardware stack levels required when called: 5
  3351 ;; This function calls:
  3352 ;;		Nothing
  3353 ;; This function is called by:
  3354 ;;		_SYSTEM_Initialize
  3355 ;; This function uses a non-reentrant model
  3356 ;;
  3357                           
  3358                           
  3359                           ;psect for function _PWM4_Initialize
  3360  05F9                     _PWM4_Initialize:
  3361  05F9                     l2848:	
  3362                           ;incstack = 0
  3363                           ; Regs used in _PWM4_Initialize: [wreg+status,2+status,0]
  3364                           
  3365                           
  3366                           ;mcc_generated_files/pwm4.c: 69:  CCP4CON = 0x3C;
  3367  05F9  303C               	movlw	60
  3368  05FA  0026               	movlb	6	; select bank6
  3369  05FB  009A               	movwf	26	;volatile
  3370                           
  3371                           ;mcc_generated_files/pwm4.c: 72:  CCPR4L = 0x03;
  3372  05FC  3003               	movlw	3
  3373  05FD  0098               	movwf	24	;volatile
  3374  05FE                     l2850:
  3375                           
  3376                           ;mcc_generated_files/pwm4.c: 75:  CCPR4H = 0x00;
  3377  05FE  0199               	clrf	25	;volatile
  3378  05FF                     l2852:
  3379                           
  3380                           ;mcc_generated_files/pwm4.c: 78:  CCPTMRSbits.C4TSEL = 0x0;
  3381  05FF  303F               	movlw	-193
  3382  0600  0025               	movlb	5	; select bank5
  3383  0601  059E               	andwf	30,f	;volatile
  3384  0602                     l49:
  3385  0602  0008               	return
  3386  0603                     __end_of_PWM4_Initialize:
  3387                           
  3388                           	psect	text5
  3389  031A                     __ptext5:	
  3390 ;; *************** function _PIN_MANAGER_Initialize *****************
  3391 ;; Defined at:
  3392 ;;		line 57 in file "mcc_generated_files/pin_manager.c"
  3393 ;; Parameters:    Size  Location     Type
  3394 ;;		None
  3395 ;; Auto vars:     Size  Location     Type
  3396 ;;		None
  3397 ;; Return value:  Size  Location     Type
  3398 ;;                  1    wreg      void 
  3399 ;; Registers used:
  3400 ;;		wreg, status,2, status,0, pclath, cstack
  3401 ;; Tracked objects:
  3402 ;;		On entry : 0/0
  3403 ;;		On exit  : 0/0
  3404 ;;		Unchanged: 0/0
  3405 ;; Data sizes:     COMMON   BANK0   BANK1   BANK2   BANK3   BANK4   BANK5   BANK6   BANK7   BANK8   BANK9  BANK10  BANK1
      +1  BANK12
  3406 ;;      Params:         0       0       0       0       0       0       0       0       0       0       0       0       
      +0       0
  3407 ;;      Locals:         0       0       0       0       0       0       0       0       0       0       0       0       
      +0       0
  3408 ;;      Temps:          0       0       0       0       0       0       0       0       0       0       0       0       
      +0       0
  3409 ;;      Totals:         0       0       0       0       0       0       0       0       0       0       0       0       
      +0       0
  3410 ;;Total ram usage:        0 bytes
  3411 ;; Hardware stack levels used: 1
  3412 ;; Hardware stack levels required when called: 6
  3413 ;; This function calls:
  3414 ;;		_IOCBF7_SetInterruptHandler
  3415 ;; This function is called by:
  3416 ;;		_SYSTEM_Initialize
  3417 ;; This function uses a non-reentrant model
  3418 ;;
  3419                           
  3420                           
  3421                           ;psect for function _PIN_MANAGER_Initialize
  3422  031A                     _PIN_MANAGER_Initialize:
  3423  031A                     l2780:	
  3424                           ;incstack = 0
  3425                           ; Regs used in _PIN_MANAGER_Initialize: [wreg+status,2+status,0+pclath+cstack]
  3426                           
  3427                           
  3428                           ;mcc_generated_files/pin_manager.c: 62:     LATA = 0x00;
  3429  031A  0022               	movlb	2	; select bank2
  3430  031B  018C               	clrf	12	;volatile
  3431                           
  3432                           ;mcc_generated_files/pin_manager.c: 63:     LATB = 0x00;
  3433  031C  018D               	clrf	13	;volatile
  3434                           
  3435                           ;mcc_generated_files/pin_manager.c: 64:     LATC = 0x00;
  3436  031D  018E               	clrf	14	;volatile
  3437  031E                     l2782:
  3438                           
  3439                           ;mcc_generated_files/pin_manager.c: 69:     TRISA = 0x3F;
  3440  031E  303F               	movlw	63
  3441  031F  0021               	movlb	1	; select bank1
  3442  0320  008C               	movwf	12	;volatile
  3443  0321                     l2784:
  3444                           
  3445                           ;mcc_generated_files/pin_manager.c: 70:     TRISB = 0xF0;
  3446  0321  30F0               	movlw	240
  3447  0322  008D               	movwf	13	;volatile
  3448  0323                     l2786:
  3449                           
  3450                           ;mcc_generated_files/pin_manager.c: 71:     TRISC = 0x97;
  3451  0323  3097               	movlw	151
  3452  0324  008E               	movwf	14	;volatile
  3453  0325                     l2788:
  3454                           
  3455                           ;mcc_generated_files/pin_manager.c: 76:     ANSELC = 0x87;
  3456  0325  3087               	movlw	135
  3457  0326  0023               	movlb	3	; select bank3
  3458  0327  008E               	movwf	14	;volatile
  3459  0328                     l2790:
  3460                           
  3461                           ;mcc_generated_files/pin_manager.c: 77:     ANSELB = 0x20;
  3462  0328  3020               	movlw	32
  3463  0329  008D               	movwf	13	;volatile
  3464  032A                     l2792:
  3465                           
  3466                           ;mcc_generated_files/pin_manager.c: 78:     ANSELA = 0x17;
  3467  032A  3017               	movlw	23
  3468  032B  008C               	movwf	12	;volatile
  3469  032C                     l2794:
  3470                           
  3471                           ;mcc_generated_files/pin_manager.c: 83:     WPUB = 0x80;
  3472  032C  3080               	movlw	128
  3473  032D  0024               	movlb	4	; select bank4
  3474  032E  008D               	movwf	13	;volatile
  3475  032F                     l2796:
  3476                           
  3477                           ;mcc_generated_files/pin_manager.c: 84:     WPUA = 0x00;
  3478  032F  018C               	clrf	12	;volatile
  3479  0330                     l2798:
  3480                           
  3481                           ;mcc_generated_files/pin_manager.c: 85:     WPUC = 0x00;
  3482  0330  018E               	clrf	14	;volatile
  3483  0331                     l2800:
  3484                           
  3485                           ;mcc_generated_files/pin_manager.c: 86:     OPTION_REGbits.nWPUEN = 0;
  3486  0331  0021               	movlb	1	; select bank1
  3487  0332  1395               	bcf	21,7	;volatile
  3488  0333                     l2802:
  3489                           
  3490                           ;mcc_generated_files/pin_manager.c: 92:     APFCON0 = 0x00;
  3491  0333  0022               	movlb	2	; select bank2
  3492  0334  019D               	clrf	29	;volatile
  3493  0335                     l2804:
  3494                           
  3495                           ;mcc_generated_files/pin_manager.c: 93:     APFCON1 = 0x00;
  3496  0335  019E               	clrf	30	;volatile
  3497  0336                     l2806:
  3498                           
  3499                           ;mcc_generated_files/pin_manager.c: 99:     IOCBFbits.IOCBF7 = 0;
  3500  0336  0027               	movlb	7	; select bank7
  3501  0337  1396               	bcf	22,7	;volatile
  3502  0338                     l2808:
  3503                           
  3504                           ;mcc_generated_files/pin_manager.c: 101:     IOCBNbits.IOCBN7 = 1;
  3505  0338  1795               	bsf	21,7	;volatile
  3506  0339                     l2810:
  3507                           
  3508                           ;mcc_generated_files/pin_manager.c: 103:     IOCBPbits.IOCBP7 = 0;
  3509  0339  1394               	bcf	20,7	;volatile
  3510  033A                     l2812:
  3511                           
  3512                           ;mcc_generated_files/pin_manager.c: 108:     IOCBF7_SetInterruptHandler(IOCBF7_DefaultIn
      +                          terruptHandler);
  3513  033A  30AE               	movlw	low _IOCBF7_DefaultInterruptHandler
  3514  033B  00F4               	movwf	IOCBF7_SetInterruptHandler@InterruptHandler
  3515  033C  3006               	movlw	high _IOCBF7_DefaultInterruptHandler
  3516  033D  00F5               	movwf	IOCBF7_SetInterruptHandler@InterruptHandler+1
  3517  033E  3186  2647  3183   	fcall	_IOCBF7_SetInterruptHandler
  3518  0341                     l2814:
  3519                           
  3520                           ;mcc_generated_files/pin_manager.c: 111:     INTCONbits.IOCIE = 1;
  3521  0341  158B               	bsf	11,3	;volatile
  3522  0342                     l192:
  3523  0342  0008               	return
  3524  0343                     __end_of_PIN_MANAGER_Initialize:
  3525                           
  3526                           	psect	text6
  3527  0647                     __ptext6:	
  3528 ;; *************** function _IOCBF7_SetInterruptHandler *****************
  3529 ;; Defined at:
  3530 ;;		line 142 in file "mcc_generated_files/pin_manager.c"
  3531 ;; Parameters:    Size  Location     Type
  3532 ;;  InterruptHan    2    4[COMMON] PTR FTN()void 
  3533 ;;		 -> IOCBF7_DefaultInterruptHandler(1), ButtonInterrupt(1), 
  3534 ;; Auto vars:     Size  Location     Type
  3535 ;;		None
  3536 ;; Return value:  Size  Location     Type
  3537 ;;                  1    wreg      void 
  3538 ;; Registers used:
  3539 ;;		wreg
  3540 ;; Tracked objects:
  3541 ;;		On entry : 0/0
  3542 ;;		On exit  : 0/0
  3543 ;;		Unchanged: 0/0
  3544 ;; Data sizes:     COMMON   BANK0   BANK1   BANK2   BANK3   BANK4   BANK5   BANK6   BANK7   BANK8   BANK9  BANK10  BANK1
      +1  BANK12
  3545 ;;      Params:         2       0       0       0       0       0       0       0       0       0       0       0       
      +0       0
  3546 ;;      Locals:         0       0       0       0       0       0       0       0       0       0       0       0       
      +0       0
  3547 ;;      Temps:          0       0       0       0       0       0       0       0       0       0       0       0       
      +0       0
  3548 ;;      Totals:         2       0       0       0       0       0       0       0       0       0       0       0       
      +0       0
  3549 ;;Total ram usage:        2 bytes
  3550 ;; Hardware stack levels used: 1
  3551 ;; Hardware stack levels required when called: 5
  3552 ;; This function calls:
  3553 ;;		Nothing
  3554 ;; This function is called by:
  3555 ;;		_main
  3556 ;;		_PIN_MANAGER_Initialize
  3557 ;; This function uses a non-reentrant model
  3558 ;;
  3559                           
  3560                           
  3561                           ;psect for function _IOCBF7_SetInterruptHandler
  3562  0647                     _IOCBF7_SetInterruptHandler:
  3563  0647                     l2732:	
  3564                           ;incstack = 0
  3565                           ; Regs used in _IOCBF7_SetInterruptHandler: [wreg]
  3566                           
  3567                           
  3568                           ;mcc_generated_files/pin_manager.c: 143:     IOCBF7_InterruptHandler = InterruptHandler;
  3569  0647  0875               	movf	IOCBF7_SetInterruptHandler@InterruptHandler+1,w
  3570  0648  00F9               	movwf	_IOCBF7_InterruptHandler+1
  3571  0649  0874               	movf	IOCBF7_SetInterruptHandler@InterruptHandler,w
  3572  064A  00F8               	movwf	_IOCBF7_InterruptHandler
  3573  064B                     l203:
  3574  064B  0008               	return
  3575  064C                     __end_of_IOCBF7_SetInterruptHandler:
  3576                           
  3577                           	psect	text7
  3578  05ED                     __ptext7:	
  3579 ;; *************** function _OSCILLATOR_Initialize *****************
  3580 ;; Defined at:
  3581 ;;		line 63 in file "mcc_generated_files/mcc.c"
  3582 ;; Parameters:    Size  Location     Type
  3583 ;;		None
  3584 ;; Auto vars:     Size  Location     Type
  3585 ;;		None
  3586 ;; Return value:  Size  Location     Type
  3587 ;;                  1    wreg      void 
  3588 ;; Registers used:
  3589 ;;		wreg, status,2
  3590 ;; Tracked objects:
  3591 ;;		On entry : 0/0
  3592 ;;		On exit  : 0/0
  3593 ;;		Unchanged: 0/0
  3594 ;; Data sizes:     COMMON   BANK0   BANK1   BANK2   BANK3   BANK4   BANK5   BANK6   BANK7   BANK8   BANK9  BANK10  BANK1
      +1  BANK12
  3595 ;;      Params:         0       0       0       0       0       0       0       0       0       0       0       0       
      +0       0
  3596 ;;      Locals:         0       0       0       0       0       0       0       0       0       0       0       0       
      +0       0
  3597 ;;      Temps:          0       0       0       0       0       0       0       0       0       0       0       0       
      +0       0
  3598 ;;      Totals:         0       0       0       0       0       0       0       0       0       0       0       0       
      +0       0
  3599 ;;Total ram usage:        0 bytes
  3600 ;; Hardware stack levels used: 1
  3601 ;; Hardware stack levels required when called: 5
  3602 ;; This function calls:
  3603 ;;		Nothing
  3604 ;; This function is called by:
  3605 ;;		_SYSTEM_Initialize
  3606 ;; This function uses a non-reentrant model
  3607 ;;
  3608                           
  3609                           
  3610                           ;psect for function _OSCILLATOR_Initialize
  3611  05ED                     _OSCILLATOR_Initialize:
  3612  05ED                     l2816:	
  3613                           ;incstack = 0
  3614                           ; Regs used in _OSCILLATOR_Initialize: [wreg+status,2]
  3615                           
  3616                           
  3617                           ;mcc_generated_files/mcc.c: 66:     OSCCON = 0x70;
  3618  05ED  3070               	movlw	112
  3619  05EE  0021               	movlb	1	; select bank1
  3620  05EF  0099               	movwf	25	;volatile
  3621  05F0                     l2818:
  3622                           
  3623                           ;mcc_generated_files/mcc.c: 68:     OSCTUNE = 0x00;
  3624  05F0  0198               	clrf	24	;volatile
  3625  05F1                     l2820:
  3626                           
  3627                           ;mcc_generated_files/mcc.c: 70:     BORCON = 0x00;
  3628  05F1  0022               	movlb	2	; select bank2
  3629  05F2  0196               	clrf	22	;volatile
  3630  05F3                     l32:	
  3631                           ;mcc_generated_files/mcc.c: 73:     {;mcc_generated_files/mcc.c: 74:     }
  3632                           
  3633                           
  3634                           ;mcc_generated_files/mcc.c: 72:     while(PLLR == 0)
  3635  05F3  0021               	movlb	1	; select bank1
  3636  05F4  1F1A               	btfss	26,6	;volatile
  3637  05F5  2DF7               	goto	u821
  3638  05F6  2DF8               	goto	u820
  3639  05F7                     u821:
  3640  05F7  2DF3               	goto	l32
  3641  05F8                     u820:
  3642  05F8                     l35:
  3643  05F8  0008               	return
  3644  05F9                     __end_of_OSCILLATOR_Initialize:
  3645                           
  3646                           	psect	text8
  3647  0603                     __ptext8:	
  3648 ;; *************** function _I2C1_Initialize *****************
  3649 ;; Defined at:
  3650 ;;		line 167 in file "mcc_generated_files/i2c1_master.c"
  3651 ;; Parameters:    Size  Location     Type
  3652 ;;		None
  3653 ;; Auto vars:     Size  Location     Type
  3654 ;;		None
  3655 ;; Return value:  Size  Location     Type
  3656 ;;                  1    wreg      void 
  3657 ;; Registers used:
  3658 ;;		wreg, status,2
  3659 ;; Tracked objects:
  3660 ;;		On entry : 0/0
  3661 ;;		On exit  : 0/0
  3662 ;;		Unchanged: 0/0
  3663 ;; Data sizes:     COMMON   BANK0   BANK1   BANK2   BANK3   BANK4   BANK5   BANK6   BANK7   BANK8   BANK9  BANK10  BANK1
      +1  BANK12
  3664 ;;      Params:         0       0       0       0       0       0       0       0       0       0       0       0       
      +0       0
  3665 ;;      Locals:         0       0       0       0       0       0       0       0       0       0       0       0       
      +0       0
  3666 ;;      Temps:          0       0       0       0       0       0       0       0       0       0       0       0       
      +0       0
  3667 ;;      Totals:         0       0       0       0       0       0       0       0       0       0       0       0       
      +0       0
  3668 ;;Total ram usage:        0 bytes
  3669 ;; Hardware stack levels used: 1
  3670 ;; Hardware stack levels required when called: 5
  3671 ;; This function calls:
  3672 ;;		Nothing
  3673 ;; This function is called by:
  3674 ;;		_SYSTEM_Initialize
  3675 ;; This function uses a non-reentrant model
  3676 ;;
  3677                           
  3678                           
  3679                           ;psect for function _I2C1_Initialize
  3680  0603                     _I2C1_Initialize:
  3681  0603                     l2772:	
  3682                           ;incstack = 0
  3683                           ; Regs used in _I2C1_Initialize: [wreg+status,2]
  3684                           
  3685                           
  3686                           ;mcc_generated_files/i2c1_master.c: 169:     SSP1STAT = 0x00;
  3687  0603  0024               	movlb	4	; select bank4
  3688  0604  0194               	clrf	20	;volatile
  3689  0605                     l2774:
  3690                           
  3691                           ;mcc_generated_files/i2c1_master.c: 170:     SSP1CON1 = 0x08;
  3692  0605  3008               	movlw	8
  3693  0606  0095               	movwf	21	;volatile
  3694  0607                     l2776:
  3695                           
  3696                           ;mcc_generated_files/i2c1_master.c: 171:     SSP1CON2 = 0x00;
  3697  0607  0196               	clrf	22	;volatile
  3698                           
  3699                           ;mcc_generated_files/i2c1_master.c: 172:     SSP1ADD = 0x4F;
  3700  0608  304F               	movlw	79
  3701  0609  0092               	movwf	18	;volatile
  3702  060A                     l2778:
  3703                           
  3704                           ;mcc_generated_files/i2c1_master.c: 173:     SSP1CON1bits.SSPEN = 0;
  3705  060A  1295               	bcf	21,5	;volatile
  3706  060B                     l464:
  3707  060B  0008               	return
  3708  060C                     __end_of_I2C1_Initialize:
  3709                           
  3710                           	psect	text9
  3711  058D                     __ptext9:	
  3712 ;; *************** function _EPWM2_Initialize *****************
  3713 ;; Defined at:
  3714 ;;		line 64 in file "mcc_generated_files/epwm2.c"
  3715 ;; Parameters:    Size  Location     Type
  3716 ;;		None
  3717 ;; Auto vars:     Size  Location     Type
  3718 ;;		None
  3719 ;; Return value:  Size  Location     Type
  3720 ;;                  1    wreg      void 
  3721 ;; Registers used:
  3722 ;;		wreg, status,2, status,0
  3723 ;; Tracked objects:
  3724 ;;		On entry : 0/0
  3725 ;;		On exit  : 0/0
  3726 ;;		Unchanged: 0/0
  3727 ;; Data sizes:     COMMON   BANK0   BANK1   BANK2   BANK3   BANK4   BANK5   BANK6   BANK7   BANK8   BANK9  BANK10  BANK1
      +1  BANK12
  3728 ;;      Params:         0       0       0       0       0       0       0       0       0       0       0       0       
      +0       0
  3729 ;;      Locals:         0       0       0       0       0       0       0       0       0       0       0       0       
      +0       0
  3730 ;;      Temps:          0       0       0       0       0       0       0       0       0       0       0       0       
      +0       0
  3731 ;;      Totals:         0       0       0       0       0       0       0       0       0       0       0       0       
      +0       0
  3732 ;;Total ram usage:        0 bytes
  3733 ;; Hardware stack levels used: 1
  3734 ;; Hardware stack levels required when called: 5
  3735 ;; This function calls:
  3736 ;;		Nothing
  3737 ;; This function is called by:
  3738 ;;		_SYSTEM_Initialize
  3739 ;; This function uses a non-reentrant model
  3740 ;;
  3741                           
  3742                           
  3743                           ;psect for function _EPWM2_Initialize
  3744  058D                     _EPWM2_Initialize:
  3745  058D                     l2824:	
  3746                           ;incstack = 0
  3747                           ; Regs used in _EPWM2_Initialize: [wreg+status,2+status,0]
  3748                           
  3749                           
  3750                           ;mcc_generated_files/epwm2.c: 69:  CCP2CON = 0x3C;
  3751  058D  303C               	movlw	60
  3752  058E  0025               	movlb	5	; select bank5
  3753  058F  009A               	movwf	26	;volatile
  3754  0590                     l2826:
  3755                           
  3756                           ;mcc_generated_files/epwm2.c: 72:  CCP2AS = 0x00;
  3757  0590  019C               	clrf	28	;volatile
  3758  0591                     l2828:
  3759                           
  3760                           ;mcc_generated_files/epwm2.c: 75:  PWM2CON = 0x80;
  3761  0591  3080               	movlw	128
  3762  0592  009B               	movwf	27	;volatile
  3763  0593                     l2830:
  3764                           
  3765                           ;mcc_generated_files/epwm2.c: 78:  PSTR2CON = 0x01;
  3766  0593  3001               	movlw	1
  3767  0594  009D               	movwf	29	;volatile
  3768  0595                     l2832:
  3769                           
  3770                           ;mcc_generated_files/epwm2.c: 81:  CCPR2H = 0x00;
  3771  0595  0199               	clrf	25	;volatile
  3772                           
  3773                           ;mcc_generated_files/epwm2.c: 84:  CCPR2L = 0x13;
  3774  0596  3013               	movlw	19
  3775  0597  0098               	movwf	24	;volatile
  3776  0598                     l2834:
  3777                           
  3778                           ;mcc_generated_files/epwm2.c: 87:  CCPTMRSbits.C2TSEL = 0x0;
  3779  0598  30F3               	movlw	-13
  3780  0599  059E               	andwf	30,f	;volatile
  3781  059A                     l120:
  3782  059A  0008               	return
  3783  059B                     __end_of_EPWM2_Initialize:
  3784                           
  3785                           	psect	text10
  3786  059B                     __ptext10:	
  3787 ;; *************** function _EPWM1_Initialize *****************
  3788 ;; Defined at:
  3789 ;;		line 64 in file "mcc_generated_files/epwm1.c"
  3790 ;; Parameters:    Size  Location     Type
  3791 ;;		None
  3792 ;; Auto vars:     Size  Location     Type
  3793 ;;		None
  3794 ;; Return value:  Size  Location     Type
  3795 ;;                  1    wreg      void 
  3796 ;; Registers used:
  3797 ;;		wreg, status,2, status,0
  3798 ;; Tracked objects:
  3799 ;;		On entry : 0/0
  3800 ;;		On exit  : 0/0
  3801 ;;		Unchanged: 0/0
  3802 ;; Data sizes:     COMMON   BANK0   BANK1   BANK2   BANK3   BANK4   BANK5   BANK6   BANK7   BANK8   BANK9  BANK10  BANK1
      +1  BANK12
  3803 ;;      Params:         0       0       0       0       0       0       0       0       0       0       0       0       
      +0       0
  3804 ;;      Locals:         0       0       0       0       0       0       0       0       0       0       0       0       
      +0       0
  3805 ;;      Temps:          0       0       0       0       0       0       0       0       0       0       0       0       
      +0       0
  3806 ;;      Totals:         0       0       0       0       0       0       0       0       0       0       0       0       
      +0       0
  3807 ;;Total ram usage:        0 bytes
  3808 ;; Hardware stack levels used: 1
  3809 ;; Hardware stack levels required when called: 5
  3810 ;; This function calls:
  3811 ;;		Nothing
  3812 ;; This function is called by:
  3813 ;;		_SYSTEM_Initialize
  3814 ;; This function uses a non-reentrant model
  3815 ;;
  3816                           
  3817                           
  3818                           ;psect for function _EPWM1_Initialize
  3819  059B                     _EPWM1_Initialize:
  3820  059B                     l2836:	
  3821                           ;incstack = 0
  3822                           ; Regs used in _EPWM1_Initialize: [wreg+status,2+status,0]
  3823                           
  3824                           
  3825                           ;mcc_generated_files/epwm1.c: 69:  CCP1CON = 0x3C;
  3826  059B  303C               	movlw	60
  3827  059C  0025               	movlb	5	; select bank5
  3828  059D  0093               	movwf	19	;volatile
  3829  059E                     l2838:
  3830                           
  3831                           ;mcc_generated_files/epwm1.c: 72:  ECCP1AS = 0x00;
  3832  059E  0195               	clrf	21	;volatile
  3833  059F                     l2840:
  3834                           
  3835                           ;mcc_generated_files/epwm1.c: 75:  PWM1CON = 0x80;
  3836  059F  3080               	movlw	128
  3837  05A0  0094               	movwf	20	;volatile
  3838  05A1                     l2842:
  3839                           
  3840                           ;mcc_generated_files/epwm1.c: 78:  PSTR1CON = 0x01;
  3841  05A1  3001               	movlw	1
  3842  05A2  0096               	movwf	22	;volatile
  3843  05A3                     l2844:
  3844                           
  3845                           ;mcc_generated_files/epwm1.c: 81:  CCPR1H = 0x00;
  3846  05A3  0192               	clrf	18	;volatile
  3847                           
  3848                           ;mcc_generated_files/epwm1.c: 84:  CCPR1L = 0x13;
  3849  05A4  3013               	movlw	19
  3850  05A5  0091               	movwf	17	;volatile
  3851  05A6                     l2846:
  3852                           
  3853                           ;mcc_generated_files/epwm1.c: 87:  CCPTMRSbits.C1TSEL = 0x0;
  3854  05A6  30FC               	movlw	-4
  3855  05A7  059E               	andwf	30,f	;volatile
  3856  05A8                     l140:
  3857  05A8  0008               	return
  3858  05A9                     __end_of_EPWM1_Initialize:
  3859                           
  3860                           	psect	text11
  3861  042F                     __ptext11:	
  3862 ;; *************** function _PWM4_LoadDutyValue *****************
  3863 ;; Defined at:
  3864 ;;		line 82 in file "mcc_generated_files/pwm4.c"
  3865 ;; Parameters:    Size  Location     Type
  3866 ;;  dutyValue       2    4[COMMON] unsigned short 
  3867 ;; Auto vars:     Size  Location     Type
  3868 ;;		None
  3869 ;; Return value:  Size  Location     Type
  3870 ;;                  1    wreg      void 
  3871 ;; Registers used:
  3872 ;;		wreg, status,2, status,0
  3873 ;; Tracked objects:
  3874 ;;		On entry : 0/0
  3875 ;;		On exit  : 0/0
  3876 ;;		Unchanged: 0/0
  3877 ;; Data sizes:     COMMON   BANK0   BANK1   BANK2   BANK3   BANK4   BANK5   BANK6   BANK7   BANK8   BANK9  BANK10  BANK1
      +1  BANK12
  3878 ;;      Params:         2       0       0       0       0       0       0       0       0       0       0       0       
      +0       0
  3879 ;;      Locals:         0       0       0       0       0       0       0       0       0       0       0       0       
      +0       0
  3880 ;;      Temps:          2       0       0       0       0       0       0       0       0       0       0       0       
      +0       0
  3881 ;;      Totals:         4       0       0       0       0       0       0       0       0       0       0       0       
      +0       0
  3882 ;;Total ram usage:        4 bytes
  3883 ;; Hardware stack levels used: 1
  3884 ;; Hardware stack levels required when called: 5
  3885 ;; This function calls:
  3886 ;;		Nothing
  3887 ;; This function is called by:
  3888 ;;		_main
  3889 ;; This function uses a non-reentrant model
  3890 ;;
  3891                           
  3892                           
  3893                           ;psect for function _PWM4_LoadDutyValue
  3894  042F                     _PWM4_LoadDutyValue:
  3895  042F                     l2926:	
  3896                           ;incstack = 0
  3897                           ; Regs used in _PWM4_LoadDutyValue: [wreg+status,2+status,0]
  3898                           
  3899                           
  3900                           ;mcc_generated_files/pwm4.c: 82: void PWM4_LoadDutyValue(uint16_t dutyValue);mcc_generat
      +                          ed_files/pwm4.c: 83: {;mcc_generated_files/pwm4.c: 85:     CCPR4L = ((dutyValue & 0x03FC
      +                          )>>2);
  3901  042F  0875               	movf	PWM4_LoadDutyValue@dutyValue+1,w
  3902  0430  00F7               	movwf	??_PWM4_LoadDutyValue+1
  3903  0431  0874               	movf	PWM4_LoadDutyValue@dutyValue,w
  3904  0432  00F6               	movwf	??_PWM4_LoadDutyValue
  3905  0433  36F7               	lsrf	??_PWM4_LoadDutyValue+1,f
  3906  0434  0CF6               	rrf	??_PWM4_LoadDutyValue,f
  3907  0435  36F7               	lsrf	??_PWM4_LoadDutyValue+1,f
  3908  0436  0CF6               	rrf	??_PWM4_LoadDutyValue,f
  3909  0437  0876               	movf	??_PWM4_LoadDutyValue,w
  3910  0438  0026               	movlb	6	; select bank6
  3911  0439  0098               	movwf	24	;volatile
  3912                           
  3913                           ;mcc_generated_files/pwm4.c: 88:     CCP4CON = ((uint8_t)(CCP4CON & 0xCF) | ((dutyValue 
      +                          & 0x0003)<<4));
  3914  043A  0874               	movf	PWM4_LoadDutyValue@dutyValue,w
  3915  043B  3903               	andlw	3
  3916  043C  00F6               	movwf	??_PWM4_LoadDutyValue
  3917  043D  3004               	movlw	4
  3918  043E                     u865:
  3919  043E  35F6               	lslf	??_PWM4_LoadDutyValue,f
  3920  043F  0B89               	decfsz	9,f
  3921  0440  2C3E               	goto	u865
  3922  0441  081A               	movf	26,w	;volatile
  3923  0442  39CF               	andlw	207
  3924  0443  0476               	iorwf	??_PWM4_LoadDutyValue,w
  3925  0444  009A               	movwf	26	;volatile
  3926  0445                     l52:
  3927  0445  0008               	return
  3928  0446                     __end_of_PWM4_LoadDutyValue:
  3929                           
  3930                           	psect	text12
  3931  025E                     __ptext12:	
  3932 ;; *************** function _I2C1_Write1ByteRegister *****************
  3933 ;; Defined at:
  3934 ;;		line 91 in file "mcc_generated_files/examples/i2c1_master_example.c"
  3935 ;; Parameters:    Size  Location     Type
  3936 ;;  address         1    wreg     unsigned char 
  3937 ;;  reg             1   15[BANK0 ] unsigned char 
  3938 ;;  data            1   16[BANK0 ] unsigned char 
  3939 ;; Auto vars:     Size  Location     Type
  3940 ;;  address         1   18[BANK0 ] unsigned char 
  3941 ;; Return value:  Size  Location     Type
  3942 ;;                  1    wreg      void 
  3943 ;; Registers used:
  3944 ;;		wreg, fsr0l, fsr0h, fsr1l, fsr1h, status,2, status,0, pclath, cstack
  3945 ;; Tracked objects:
  3946 ;;		On entry : 0/0
  3947 ;;		On exit  : 0/0
  3948 ;;		Unchanged: 0/0
  3949 ;; Data sizes:     COMMON   BANK0   BANK1   BANK2   BANK3   BANK4   BANK5   BANK6   BANK7   BANK8   BANK9  BANK10  BANK1
      +1  BANK12
  3950 ;;      Params:         0       2       0       0       0       0       0       0       0       0       0       0       
      +0       0
  3951 ;;      Locals:         0       1       0       0       0       0       0       0       0       0       0       0       
      +0       0
  3952 ;;      Temps:          0       1       0       0       0       0       0       0       0       0       0       0       
      +0       0
  3953 ;;      Totals:         0       4       0       0       0       0       0       0       0       0       0       0       
      +0       0
  3954 ;;Total ram usage:        4 bytes
  3955 ;; Hardware stack levels used: 1
  3956 ;; Hardware stack levels required when called: 13
  3957 ;; This function calls:
  3958 ;;		_I2C1_Close
  3959 ;;		_I2C1_MasterWrite
  3960 ;;		_I2C1_Open
  3961 ;;		_I2C1_SetAddressNackCallback
  3962 ;;		_I2C1_SetBuffer
  3963 ;;		_I2C1_SetDataCompleteCallback
  3964 ;; This function is called by:
  3965 ;;		_main
  3966 ;; This function uses a non-reentrant model
  3967 ;;
  3968                           
  3969                           
  3970                           ;psect for function _I2C1_Write1ByteRegister
  3971  025E                     _I2C1_Write1ByteRegister:
  3972                           
  3973                           ;incstack = 0
  3974                           ; Regs used in _I2C1_Write1ByteRegister: [wreg-fsr1h+status,2+status,0+pclath+cstack]
  3975                           ;I2C1_Write1ByteRegister@address stored from wreg
  3976  025E  0020               	movlb	0	; select bank0
  3977  025F  00CF               	movwf	I2C1_Write1ByteRegister@address
  3978  0260                     l3570:
  3979  0260                     l3572:	
  3980                           ;mcc_generated_files/examples/i2c1_master_example.c: 91: void I2C1_Write1ByteRegister(i2
      +                          c1_address_t address, uint8_t reg, uint8_t data);mcc_generated_files/examples/i2c1_maste
      +                          r_example.c: 92: {;mcc_generated_files/examples/i2c1_master_example.c: 93:     while(!I2
      +                          C1_Open(address));
  3981                           
  3982  0260  0020               	movlb	0	; select bank0
  3983  0261  084F               	movf	I2C1_Write1ByteRegister@address,w
  3984  0262  3181  21ED  3182   	fcall	_I2C1_Open
  3985  0265  3A00               	xorlw	0
  3986  0266  1903               	skipnz
  3987  0267  2A69               	goto	u1391
  3988  0268  2A6A               	goto	u1390
  3989  0269                     u1391:
  3990  0269  2A60               	goto	l3572
  3991  026A                     u1390:
  3992  026A                     l3574:
  3993                           
  3994                           ;mcc_generated_files/examples/i2c1_master_example.c: 94:     I2C1_SetDataCompleteCallbac
      +                          k(wr1RegCompleteHandler,&data);
  3995  026A  3031               	movlw	low _wr1RegCompleteHandler
  3996  026B  0020               	movlb	0	; select bank0
  3997  026C  00BE               	movwf	I2C1_SetDataCompleteCallback@cb
  3998  026D  3005               	movlw	high _wr1RegCompleteHandler
  3999  026E  00BF               	movwf	I2C1_SetDataCompleteCallback@cb+1
  4000  026F  304D               	movlw	(low (I2C1_Write1ByteRegister@data| 0))& (0+255)
  4001  0270  00CE               	movwf	??_I2C1_Write1ByteRegister
  4002  0271  084E               	movf	??_I2C1_Write1ByteRegister,w
  4003  0272  00C0               	movwf	I2C1_SetDataCompleteCallback@ptr
  4004  0273  3185  25B7  3182   	fcall	_I2C1_SetDataCompleteCallback
  4005  0276                     l3576:
  4006                           
  4007                           ;mcc_generated_files/examples/i2c1_master_example.c: 95:     I2C1_SetBuffer(&reg,1);
  4008  0276  3001               	movlw	1
  4009  0277  00F4               	movwf	I2C1_SetBuffer@bufferSize
  4010  0278  3000               	movlw	0
  4011  0279  00F5               	movwf	I2C1_SetBuffer@bufferSize+1
  4012  027A  304C               	movlw	(low (I2C1_Write1ByteRegister@reg| 0))& (0+255)
  4013  027B  3185  257D  3182   	fcall	_I2C1_SetBuffer
  4014  027E                     l3578:
  4015                           
  4016                           ;mcc_generated_files/examples/i2c1_master_example.c: 96:     I2C1_SetAddressNackCallback
      +                          (((void*)0),((void*)0));
  4017  027E  3000               	movlw	0
  4018  027F  0020               	movlb	0	; select bank0
  4019  0280  00BE               	movwf	I2C1_SetAddressNackCallback@cb
  4020  0281  00BF               	movwf	I2C1_SetAddressNackCallback@cb+1
  4021  0282  01C0               	clrf	I2C1_SetAddressNackCallback@ptr
  4022  0283  3185  25A9  3182   	fcall	_I2C1_SetAddressNackCallback
  4023  0286                     l3580:
  4024                           
  4025                           ;mcc_generated_files/examples/i2c1_master_example.c: 97:     I2C1_MasterWrite();
  4026  0286  3186  264C  3182   	fcall	_I2C1_MasterWrite
  4027  0289                     l3582:	
  4028                           ;mcc_generated_files/examples/i2c1_master_example.c: 98:     while(I2C1_BUSY == I2C1_Clo
      +                          se());
  4029                           
  4030  0289  3183  23C6  3182   	fcall	_I2C1_Close
  4031  028C  3A01               	xorlw	1
  4032  028D  1903               	skipnz
  4033  028E  2A90               	goto	u1401
  4034  028F  2A91               	goto	u1400
  4035  0290                     u1401:
  4036  0290  2A89               	goto	l3582
  4037  0291                     u1400:
  4038  0291                     l306:
  4039  0291  0008               	return
  4040  0292                     __end_of_I2C1_Write1ByteRegister:
  4041                           
  4042                           	psect	text13
  4043  0227                     __ptext13:	
  4044 ;; *************** function _I2C1_Read1ByteRegister *****************
  4045 ;; Defined at:
  4046 ;;		line 63 in file "mcc_generated_files/examples/i2c1_master_example.c"
  4047 ;; Parameters:    Size  Location     Type
  4048 ;;  address         1    wreg     unsigned char 
  4049 ;;  reg             1   15[BANK0 ] unsigned char 
  4050 ;; Auto vars:     Size  Location     Type
  4051 ;;  address         1   17[BANK0 ] unsigned char 
  4052 ;;  returnValue     1   18[BANK0 ] unsigned char 
  4053 ;; Return value:  Size  Location     Type
  4054 ;;                  1    wreg      unsigned char 
  4055 ;; Registers used:
  4056 ;;		wreg, fsr0l, fsr0h, fsr1l, fsr1h, status,2, status,0, pclath, cstack
  4057 ;; Tracked objects:
  4058 ;;		On entry : 0/0
  4059 ;;		On exit  : 0/0
  4060 ;;		Unchanged: 0/0
  4061 ;; Data sizes:     COMMON   BANK0   BANK1   BANK2   BANK3   BANK4   BANK5   BANK6   BANK7   BANK8   BANK9  BANK10  BANK1
      +1  BANK12
  4062 ;;      Params:         0       1       0       0       0       0       0       0       0       0       0       0       
      +0       0
  4063 ;;      Locals:         0       2       0       0       0       0       0       0       0       0       0       0       
      +0       0
  4064 ;;      Temps:          0       1       0       0       0       0       0       0       0       0       0       0       
      +0       0
  4065 ;;      Totals:         0       4       0       0       0       0       0       0       0       0       0       0       
      +0       0
  4066 ;;Total ram usage:        4 bytes
  4067 ;; Hardware stack levels used: 1
  4068 ;; Hardware stack levels required when called: 13
  4069 ;; This function calls:
  4070 ;;		_I2C1_Close
  4071 ;;		_I2C1_MasterWrite
  4072 ;;		_I2C1_Open
  4073 ;;		_I2C1_SetAddressNackCallback
  4074 ;;		_I2C1_SetBuffer
  4075 ;;		_I2C1_SetDataCompleteCallback
  4076 ;; This function is called by:
  4077 ;;		_main
  4078 ;; This function uses a non-reentrant model
  4079 ;;
  4080                           
  4081                           
  4082                           ;psect for function _I2C1_Read1ByteRegister
  4083  0227                     _I2C1_Read1ByteRegister:
  4084                           
  4085                           ;incstack = 0
  4086                           ; Regs used in _I2C1_Read1ByteRegister: [wreg-fsr1h+status,2+status,0+pclath+cstack]
  4087                           ;I2C1_Read1ByteRegister@address stored from wreg
  4088  0227  0020               	movlb	0	; select bank0
  4089  0228  00CE               	movwf	I2C1_Read1ByteRegister@address
  4090  0229                     l3552:
  4091                           
  4092                           ;mcc_generated_files/examples/i2c1_master_example.c: 63: uint8_t I2C1_Read1ByteRegister(
      +                          i2c1_address_t address, uint8_t reg);mcc_generated_files/examples/i2c1_master_example.c:
      +                           64: {;mcc_generated_files/examples/i2c1_master_example.c: 65:     uint8_t returnValue =
      +                           0x00;
  4093  0229  01CF               	clrf	I2C1_Read1ByteRegister@returnValue
  4094  022A                     l3554:	
  4095                           ;mcc_generated_files/examples/i2c1_master_example.c: 67:     while(!I2C1_Open(address));
  4096                           
  4097  022A  0020               	movlb	0	; select bank0
  4098  022B  084E               	movf	I2C1_Read1ByteRegister@address,w
  4099  022C  3181  21ED  3182   	fcall	_I2C1_Open
  4100  022F  3A00               	xorlw	0
  4101  0230  1903               	skipnz
  4102  0231  2A33               	goto	u1371
  4103  0232  2A34               	goto	u1370
  4104  0233                     u1371:
  4105  0233  2A2A               	goto	l3554
  4106  0234                     u1370:
  4107  0234                     l3556:
  4108                           
  4109                           ;mcc_generated_files/examples/i2c1_master_example.c: 68:     I2C1_SetDataCompleteCallbac
      +                          k(rd1RegCompleteHandler,&returnValue);
  4110  0234  3057               	movlw	low _rd1RegCompleteHandler
  4111  0235  0020               	movlb	0	; select bank0
  4112  0236  00BE               	movwf	I2C1_SetDataCompleteCallback@cb
  4113  0237  3005               	movlw	high _rd1RegCompleteHandler
  4114  0238  00BF               	movwf	I2C1_SetDataCompleteCallback@cb+1
  4115  0239  304F               	movlw	(low (I2C1_Read1ByteRegister@returnValue| 0))& (0+255)
  4116  023A  00CD               	movwf	??_I2C1_Read1ByteRegister
  4117  023B  084D               	movf	??_I2C1_Read1ByteRegister,w
  4118  023C  00C0               	movwf	I2C1_SetDataCompleteCallback@ptr
  4119  023D  3185  25B7  3182   	fcall	_I2C1_SetDataCompleteCallback
  4120  0240                     l3558:
  4121                           
  4122                           ;mcc_generated_files/examples/i2c1_master_example.c: 69:     I2C1_SetBuffer(&reg,1);
  4123  0240  3001               	movlw	1
  4124  0241  00F4               	movwf	I2C1_SetBuffer@bufferSize
  4125  0242  3000               	movlw	0
  4126  0243  00F5               	movwf	I2C1_SetBuffer@bufferSize+1
  4127  0244  304C               	movlw	(low (I2C1_Read1ByteRegister@reg| 0))& (0+255)
  4128  0245  3185  257D  3182   	fcall	_I2C1_SetBuffer
  4129  0248                     l3560:
  4130                           
  4131                           ;mcc_generated_files/examples/i2c1_master_example.c: 70:     I2C1_SetAddressNackCallback
      +                          (((void*)0),((void*)0));
  4132  0248  3000               	movlw	0
  4133  0249  0020               	movlb	0	; select bank0
  4134  024A  00BE               	movwf	I2C1_SetAddressNackCallback@cb
  4135  024B  00BF               	movwf	I2C1_SetAddressNackCallback@cb+1
  4136  024C  01C0               	clrf	I2C1_SetAddressNackCallback@ptr
  4137  024D  3185  25A9  3182   	fcall	_I2C1_SetAddressNackCallback
  4138  0250                     l3562:
  4139                           
  4140                           ;mcc_generated_files/examples/i2c1_master_example.c: 71:     I2C1_MasterWrite();
  4141  0250  3186  264C  3182   	fcall	_I2C1_MasterWrite
  4142  0253                     l3564:	
  4143                           ;mcc_generated_files/examples/i2c1_master_example.c: 72:     while(I2C1_BUSY == I2C1_Clo
      +                          se());
  4144                           
  4145  0253  3183  23C6  3182   	fcall	_I2C1_Close
  4146  0256  3A01               	xorlw	1
  4147  0257  1903               	skipnz
  4148  0258  2A5A               	goto	u1381
  4149  0259  2A5B               	goto	u1380
  4150  025A                     u1381:
  4151  025A  2A53               	goto	l3564
  4152  025B                     u1380:
  4153  025B                     l3566:
  4154                           
  4155                           ;mcc_generated_files/examples/i2c1_master_example.c: 74:     return returnValue;
  4156  025B  0020               	movlb	0	; select bank0
  4157  025C  084F               	movf	I2C1_Read1ByteRegister@returnValue,w
  4158  025D                     l288:
  4159  025D  0008               	return
  4160  025E                     __end_of_I2C1_Read1ByteRegister:
  4161                           
  4162                           	psect	text14
  4163  05A9                     __ptext14:	
  4164 ;; *************** function _I2C1_SetAddressNackCallback *****************
  4165 ;; Defined at:
  4166 ;;		line 283 in file "mcc_generated_files/i2c1_master.c"
  4167 ;; Parameters:    Size  Location     Type
  4168 ;;  cb              2    1[BANK0 ] PTR FTN(PTR void ,)enum 
  4169 ;;		 -> Absolute function(1), 
  4170 ;;  ptr             1    3[BANK0 ] PTR void 
  4171 ;;		 -> NULL(0), 
  4172 ;; Auto vars:     Size  Location     Type
  4173 ;;		None
  4174 ;; Return value:  Size  Location     Type
  4175 ;;                  1    wreg      void 
  4176 ;; Registers used:
  4177 ;;		wreg, fsr1l, fsr1h, status,2, status,0, pclath, cstack
  4178 ;; Tracked objects:
  4179 ;;		On entry : 0/0
  4180 ;;		On exit  : 0/0
  4181 ;;		Unchanged: 0/0
  4182 ;; Data sizes:     COMMON   BANK0   BANK1   BANK2   BANK3   BANK4   BANK5   BANK6   BANK7   BANK8   BANK9  BANK10  BANK1
      +1  BANK12
  4183 ;;      Params:         0       3       0       0       0       0       0       0       0       0       0       0       
      +0       0
  4184 ;;      Locals:         0       0       0       0       0       0       0       0       0       0       0       0       
      +0       0
  4185 ;;      Temps:          0       1       0       0       0       0       0       0       0       0       0       0       
      +0       0
  4186 ;;      Totals:         0       4       0       0       0       0       0       0       0       0       0       0       
      +0       0
  4187 ;;Total ram usage:        4 bytes
  4188 ;; Hardware stack levels used: 1
  4189 ;; Hardware stack levels required when called: 6
  4190 ;; This function calls:
  4191 ;;		_I2C1_SetCallback
  4192 ;; This function is called by:
  4193 ;;		_I2C1_Read1ByteRegister
  4194 ;;		_I2C1_Write1ByteRegister
  4195 ;;		_I2C1_Read2ByteRegister
  4196 ;;		_I2C1_Write2ByteRegister
  4197 ;;		_I2C1_WriteNBytes
  4198 ;;		_I2C1_ReadDataBlock
  4199 ;;		_i2c_write1ByteRegister
  4200 ;;		_i2c_writeNBytes
  4201 ;;		_i2c_read1ByteRegister
  4202 ;;		_i2c_read2ByteRegister
  4203 ;;		_i2c_write2ByteRegister
  4204 ;;		_i2c_readDataBlock
  4205 ;; This function uses a non-reentrant model
  4206 ;;
  4207                           
  4208                           
  4209                           ;psect for function _I2C1_SetAddressNackCallback
  4210  05A9                     _I2C1_SetAddressNackCallback:
  4211  05A9                     l3546:	
  4212                           ;incstack = 0
  4213                           ; Regs used in _I2C1_SetAddressNackCallback: [wreg+fsr1l+fsr1h+status,2+status,0+pclath+
      +                          cstack]
  4214                           
  4215                           
  4216                           ;mcc_generated_files/i2c1_master.c: 283: void I2C1_SetAddressNackCallback(i2c1_callback_
      +                          t cb, void *ptr);mcc_generated_files/i2c1_master.c: 284: {;mcc_generated_files/i2c1_mast
      +                          er.c: 285:     I2C1_SetCallback(I2C1_ADDR_NACK, cb, ptr);
  4217  05A9  0020               	movlb	0	; select bank0
  4218  05AA  083F               	movf	I2C1_SetAddressNackCallback@cb+1,w
  4219  05AB  00F5               	movwf	I2C1_SetCallback@cb+1
  4220  05AC  083E               	movf	I2C1_SetAddressNackCallback@cb,w
  4221  05AD  00F4               	movwf	I2C1_SetCallback@cb
  4222  05AE  0840               	movf	I2C1_SetAddressNackCallback@ptr,w
  4223  05AF  00C1               	movwf	??_I2C1_SetAddressNackCallback
  4224  05B0  0841               	movf	??_I2C1_SetAddressNackCallback,w
  4225  05B1  00F6               	movwf	I2C1_SetCallback@ptr
  4226  05B2  3002               	movlw	2
  4227  05B3  3183  2343  3185   	fcall	_I2C1_SetCallback
  4228  05B6                     l500:
  4229  05B6  0008               	return
  4230  05B7                     __end_of_I2C1_SetAddressNackCallback:
  4231                           
  4232                           	psect	text15
  4233  01ED                     __ptext15:	
  4234 ;; *************** function _I2C1_Open *****************
  4235 ;; Defined at:
  4236 ;;		line 176 in file "mcc_generated_files/i2c1_master.c"
  4237 ;; Parameters:    Size  Location     Type
  4238 ;;  address         1    wreg     unsigned char 
  4239 ;; Auto vars:     Size  Location     Type
  4240 ;;  address         1    5[COMMON] unsigned char 
  4241 ;;  returnValue     1    6[COMMON] enum E355
  4242 ;; Return value:  Size  Location     Type
  4243 ;;                  1    wreg      enum E355
  4244 ;; Registers used:
  4245 ;;		wreg, status,2, status,0, pclath, cstack
  4246 ;; Tracked objects:
  4247 ;;		On entry : 0/0
  4248 ;;		On exit  : 0/0
  4249 ;;		Unchanged: 0/0
  4250 ;; Data sizes:     COMMON   BANK0   BANK1   BANK2   BANK3   BANK4   BANK5   BANK6   BANK7   BANK8   BANK9  BANK10  BANK1
      +1  BANK12
  4251 ;;      Params:         0       0       0       0       0       0       0       0       0       0       0       0       
      +0       0
  4252 ;;      Locals:         2       0       0       0       0       0       0       0       0       0       0       0       
      +0       0
  4253 ;;      Temps:          1       0       0       0       0       0       0       0       0       0       0       0       
      +0       0
  4254 ;;      Totals:         3       0       0       0       0       0       0       0       0       0       0       0       
      +0       0
  4255 ;;Total ram usage:        3 bytes
  4256 ;; Hardware stack levels used: 1
  4257 ;; Hardware stack levels required when called: 6
  4258 ;; This function calls:
  4259 ;;		_I2C1_MasterClearIrq
  4260 ;;		_I2C1_MasterOpen
  4261 ;; This function is called by:
  4262 ;;		_I2C1_Read1ByteRegister
  4263 ;;		_I2C1_Write1ByteRegister
  4264 ;;		_I2C1_Read2ByteRegister
  4265 ;;		_I2C1_Write2ByteRegister
  4266 ;;		_I2C1_WriteNBytes
  4267 ;;		_I2C1_ReadNBytes
  4268 ;;		_I2C1_ReadDataBlock
  4269 ;;		_i2c_write1ByteRegister
  4270 ;;		_i2c_writeNBytes
  4271 ;;		_i2c_read1ByteRegister
  4272 ;;		_i2c_read2ByteRegister
  4273 ;;		_i2c_write2ByteRegister
  4274 ;;		_i2c_readDataBlock
  4275 ;;		_i2c_readNBytes
  4276 ;; This function uses a non-reentrant model
  4277 ;;
  4278                           
  4279                           
  4280                           ;psect for function _I2C1_Open
  4281  01ED                     _I2C1_Open:
  4282                           
  4283                           ;incstack = 0
  4284                           ; Regs used in _I2C1_Open: [wreg+status,2+status,0+pclath+cstack]
  4285                           ;I2C1_Open@address stored from wreg
  4286  01ED  00F5               	movwf	I2C1_Open@address
  4287  01EE                     l2868:
  4288                           
  4289                           ;mcc_generated_files/i2c1_master.c: 176: i2c1_error_t I2C1_Open(i2c1_address_t address);
      +                          mcc_generated_files/i2c1_master.c: 177: {;mcc_generated_files/i2c1_master.c: 178:     i2
      +                          c1_error_t returnValue = I2C1_BUSY;
  4290  01EE  01F6               	clrf	I2C1_Open@returnValue
  4291  01EF  0AF6               	incf	I2C1_Open@returnValue,f
  4292                           
  4293                           ;mcc_generated_files/i2c1_master.c: 180:     if(!I2C1_Status.inUse)
  4294  01F0  0020               	movlb	0	; select bank0
  4295  01F1  193C               	btfsc	_I2C1_Status+28,2
  4296  01F2  29F4               	goto	u841
  4297  01F3  29F5               	goto	u840
  4298  01F4                     u841:
  4299  01F4  2A25               	goto	l467
  4300  01F5                     u840:
  4301  01F5                     l2870:
  4302                           
  4303                           ;mcc_generated_files/i2c1_master.c: 181:     {;mcc_generated_files/i2c1_master.c: 182:  
      +                                 I2C1_Status.address = address;
  4304  01F5  0875               	movf	I2C1_Open@address,w
  4305  01F6  00F4               	movwf	??_I2C1_Open
  4306  01F7  0874               	movf	??_I2C1_Open,w
  4307  01F8  00B6               	movwf	_I2C1_Status+22
  4308  01F9                     l2872:
  4309                           
  4310                           ;mcc_generated_files/i2c1_master.c: 183:         I2C1_Status.busy = 0;
  4311  01F9  10BC               	bcf	_I2C1_Status+28,1
  4312  01FA                     l2874:
  4313                           
  4314                           ;mcc_generated_files/i2c1_master.c: 184:         I2C1_Status.inUse = 1;
  4315  01FA  153C               	bsf	_I2C1_Status+28,2
  4316  01FB                     l2876:
  4317                           
  4318                           ;mcc_generated_files/i2c1_master.c: 185:         I2C1_Status.addressNackCheck = 0;
  4319  01FB  103C               	bcf	_I2C1_Status+28,0
  4320                           
  4321                           ;mcc_generated_files/i2c1_master.c: 186:         I2C1_Status.state = I2C1_RESET;
  4322  01FC  300E               	movlw	14
  4323  01FD  00F4               	movwf	??_I2C1_Open
  4324  01FE  0874               	movf	??_I2C1_Open,w
  4325  01FF  00BA               	movwf	_I2C1_Status+26
  4326                           
  4327                           ;mcc_generated_files/i2c1_master.c: 187:         I2C1_Status.time_out_value = 500;
  4328  0200  30F4               	movlw	244
  4329  0201  00B4               	movwf	_I2C1_Status+20
  4330  0202  3001               	movlw	1
  4331  0203  00B5               	movwf	_I2C1_Status+21
  4332  0204                     l2878:
  4333                           
  4334                           ;mcc_generated_files/i2c1_master.c: 188:         I2C1_Status.bufferFree = 1;
  4335  0204  15BC               	bsf	_I2C1_Status+28,3
  4336                           
  4337                           ;mcc_generated_files/i2c1_master.c: 191:         I2C1_Status.callbackTable[I2C1_DATA_COM
      +                          PLETE]=I2C1_CallbackReturnStop;
  4338  0205  30AC               	movlw	low _I2C1_CallbackReturnStop
  4339  0206  00A0               	movwf	_I2C1_Status
  4340  0207  3006               	movlw	high _I2C1_CallbackReturnStop
  4341  0208  00A1               	movwf	_I2C1_Status+1
  4342  0209                     l2880:
  4343                           
  4344                           ;mcc_generated_files/i2c1_master.c: 192:         I2C1_Status.callbackPayload[I2C1_DATA_C
      +                          OMPLETE] = ((void*)0);
  4345  0209  01AC               	clrf	low ((_I2C1_Status| 0+12))
  4346  020A                     l2882:
  4347                           
  4348                           ;mcc_generated_files/i2c1_master.c: 193:         I2C1_Status.callbackTable[I2C1_WRITE_CO
      +                          LLISION]=I2C1_CallbackReturnStop;
  4349  020A  30AC               	movlw	low _I2C1_CallbackReturnStop
  4350  020B  00A2               	movwf	low ((_I2C1_Status| 0+2))
  4351  020C  3006               	movlw	high _I2C1_CallbackReturnStop
  4352  020D  00A3               	movwf	(low ((_I2C1_Status| 0+2))+1)
  4353                           
  4354                           ;mcc_generated_files/i2c1_master.c: 194:         I2C1_Status.callbackPayload[I2C1_WRITE_
      +                          COLLISION] = ((void*)0);
  4355  020E  01AD               	clrf	low ((_I2C1_Status| 0+13))
  4356  020F                     l2884:
  4357                           
  4358                           ;mcc_generated_files/i2c1_master.c: 195:         I2C1_Status.callbackTable[I2C1_ADDR_NAC
      +                          K]=I2C1_CallbackReturnStop;
  4359  020F  30AC               	movlw	low _I2C1_CallbackReturnStop
  4360  0210  00A4               	movwf	low ((_I2C1_Status| 0+4))
  4361  0211  3006               	movlw	high _I2C1_CallbackReturnStop
  4362  0212  00A5               	movwf	(low ((_I2C1_Status| 0+4))+1)
  4363  0213                     l2886:
  4364                           
  4365                           ;mcc_generated_files/i2c1_master.c: 196:         I2C1_Status.callbackPayload[I2C1_ADDR_N
      +                          ACK] = ((void*)0);
  4366  0213  01AE               	clrf	low ((_I2C1_Status| 0+14))
  4367                           
  4368                           ;mcc_generated_files/i2c1_master.c: 197:         I2C1_Status.callbackTable[I2C1_DATA_NAC
      +                          K]=I2C1_CallbackReturnStop;
  4369  0214  30AC               	movlw	low _I2C1_CallbackReturnStop
  4370  0215  00A6               	movwf	low ((_I2C1_Status| 0+6))
  4371  0216  3006               	movlw	high _I2C1_CallbackReturnStop
  4372  0217  00A7               	movwf	(low ((_I2C1_Status| 0+6))+1)
  4373  0218                     l2888:
  4374                           
  4375                           ;mcc_generated_files/i2c1_master.c: 198:         I2C1_Status.callbackPayload[I2C1_DATA_N
      +                          ACK] = ((void*)0);
  4376  0218  01AF               	clrf	low ((_I2C1_Status| 0+15))
  4377  0219                     l2890:
  4378                           
  4379                           ;mcc_generated_files/i2c1_master.c: 199:         I2C1_Status.callbackTable[I2C1_TIMEOUT]
      +                          =I2C1_CallbackReturnReset;
  4380  0219  30AA               	movlw	low _I2C1_CallbackReturnReset
  4381  021A  00A8               	movwf	low ((_I2C1_Status| 0+8))
  4382  021B  3006               	movlw	high _I2C1_CallbackReturnReset
  4383  021C  00A9               	movwf	(low ((_I2C1_Status| 0+8))+1)
  4384                           
  4385                           ;mcc_generated_files/i2c1_master.c: 200:         I2C1_Status.callbackPayload[I2C1_TIMEOU
      +                          T] = ((void*)0);
  4386  021D  01B0               	clrf	low ((_I2C1_Status| 0+16))
  4387  021E                     l2892:
  4388                           
  4389                           ;mcc_generated_files/i2c1_master.c: 202:         I2C1_MasterClearIrq();
  4390  021E  3186  26A7  3181   	fcall	_I2C1_MasterClearIrq
  4391  0221                     l2894:
  4392                           
  4393                           ;mcc_generated_files/i2c1_master.c: 203:         I2C1_MasterOpen();
  4394  0221  3185  25D3  3181   	fcall	_I2C1_MasterOpen
  4395  0224                     l2896:
  4396                           
  4397                           ;mcc_generated_files/i2c1_master.c: 204:         returnValue = I2C1_NOERR;
  4398  0224  01F6               	clrf	I2C1_Open@returnValue
  4399  0225                     l467:	
  4400                           ;mcc_generated_files/i2c1_master.c: 205:     }
  4401                           
  4402                           
  4403                           ;mcc_generated_files/i2c1_master.c: 206:     return returnValue;
  4404  0225  0876               	movf	I2C1_Open@returnValue,w
  4405  0226                     l468:
  4406  0226  0008               	return
  4407  0227                     __end_of_I2C1_Open:
  4408                           
  4409                           	psect	text16
  4410  05D3                     __ptext16:	
  4411 ;; *************** function _I2C1_MasterOpen *****************
  4412 ;; Defined at:
  4413 ;;		line 543 in file "mcc_generated_files/i2c1_master.c"
  4414 ;; Parameters:    Size  Location     Type
  4415 ;;		None
  4416 ;; Auto vars:     Size  Location     Type
  4417 ;;		None
  4418 ;; Return value:  Size  Location     Type
  4419 ;;                  1    wreg      _Bool 
  4420 ;; Registers used:
  4421 ;;		wreg, status,2
  4422 ;; Tracked objects:
  4423 ;;		On entry : 0/0
  4424 ;;		On exit  : 0/0
  4425 ;;		Unchanged: 0/0
  4426 ;; Data sizes:     COMMON   BANK0   BANK1   BANK2   BANK3   BANK4   BANK5   BANK6   BANK7   BANK8   BANK9  BANK10  BANK1
      +1  BANK12
  4427 ;;      Params:         0       0       0       0       0       0       0       0       0       0       0       0       
      +0       0
  4428 ;;      Locals:         0       0       0       0       0       0       0       0       0       0       0       0       
      +0       0
  4429 ;;      Temps:          0       0       0       0       0       0       0       0       0       0       0       0       
      +0       0
  4430 ;;      Totals:         0       0       0       0       0       0       0       0       0       0       0       0       
      +0       0
  4431 ;;Total ram usage:        0 bytes
  4432 ;; Hardware stack levels used: 1
  4433 ;; Hardware stack levels required when called: 5
  4434 ;; This function calls:
  4435 ;;		Nothing
  4436 ;; This function is called by:
  4437 ;;		_I2C1_Open
  4438 ;; This function uses a non-reentrant model
  4439 ;;
  4440                           
  4441                           
  4442                           ;psect for function _I2C1_MasterOpen
  4443  05D3                     _I2C1_MasterOpen:
  4444  05D3                     l2736:	
  4445                           ;incstack = 0
  4446                           ; Regs used in _I2C1_MasterOpen: [wreg+status,2]
  4447                           
  4448                           
  4449                           ;mcc_generated_files/i2c1_master.c: 545:     if(!SSP1CON1bits.SSPEN)
  4450  05D3  0024               	movlb	4	; select bank4
  4451  05D4  1A95               	btfsc	21,5	;volatile
  4452  05D5  2DD7               	goto	u791
  4453  05D6  2DD8               	goto	u790
  4454  05D7                     u791:
  4455  05D7  2DDF               	goto	l633
  4456  05D8                     u790:
  4457  05D8                     l2738:
  4458                           
  4459                           ;mcc_generated_files/i2c1_master.c: 546:     {;mcc_generated_files/i2c1_master.c: 547:  
      +                                 SSP1STAT = 0x00;
  4460  05D8  0194               	clrf	20	;volatile
  4461  05D9                     l2740:
  4462                           
  4463                           ;mcc_generated_files/i2c1_master.c: 548:         SSP1CON1 = 0x08;
  4464  05D9  3008               	movlw	8
  4465  05DA  0095               	movwf	21	;volatile
  4466  05DB                     l2742:
  4467                           
  4468                           ;mcc_generated_files/i2c1_master.c: 549:         SSP1CON2 = 0x00;
  4469  05DB  0196               	clrf	22	;volatile
  4470                           
  4471                           ;mcc_generated_files/i2c1_master.c: 550:         SSP1ADD = 0x4F;
  4472  05DC  304F               	movlw	79
  4473  05DD  0092               	movwf	18	;volatile
  4474  05DE                     l2744:
  4475                           
  4476                           ;mcc_generated_files/i2c1_master.c: 551:         SSP1CON1bits.SSPEN = 1;
  4477  05DE  1695               	bsf	21,5	;volatile
  4478  05DF                     l633:
  4479  05DF  0008               	return
  4480  05E0                     __end_of_I2C1_MasterOpen:
  4481                           
  4482                           	psect	text17
  4483  064C                     __ptext17:	
  4484 ;; *************** function _I2C1_MasterWrite *****************
  4485 ;; Defined at:
  4486 ;;		line 251 in file "mcc_generated_files/i2c1_master.c"
  4487 ;; Parameters:    Size  Location     Type
  4488 ;;		None
  4489 ;; Auto vars:     Size  Location     Type
  4490 ;;		None
  4491 ;; Return value:  Size  Location     Type
  4492 ;;                  1    wreg      enum E355
  4493 ;; Registers used:
  4494 ;;		wreg, fsr0l, fsr0h, fsr1l, fsr1h, status,2, status,0, pclath, cstack
  4495 ;; Tracked objects:
  4496 ;;		On entry : 0/0
  4497 ;;		On exit  : 0/0
  4498 ;;		Unchanged: 0/0
  4499 ;; Data sizes:     COMMON   BANK0   BANK1   BANK2   BANK3   BANK4   BANK5   BANK6   BANK7   BANK8   BANK9  BANK10  BANK1
      +1  BANK12
  4500 ;;      Params:         0       0       0       0       0       0       0       0       0       0       0       0       
      +0       0
  4501 ;;      Locals:         0       0       0       0       0       0       0       0       0       0       0       0       
      +0       0
  4502 ;;      Temps:          0       0       0       0       0       0       0       0       0       0       0       0       
      +0       0
  4503 ;;      Totals:         0       0       0       0       0       0       0       0       0       0       0       0       
      +0       0
  4504 ;;Total ram usage:        0 bytes
  4505 ;; Hardware stack levels used: 1
  4506 ;; Hardware stack levels required when called: 12
  4507 ;; This function calls:
  4508 ;;		_I2C1_MasterOperation
  4509 ;; This function is called by:
  4510 ;;		_I2C1_Read1ByteRegister
  4511 ;;		_I2C1_Write1ByteRegister
  4512 ;;		_I2C1_Read2ByteRegister
  4513 ;;		_I2C1_Write2ByteRegister
  4514 ;;		_I2C1_WriteNBytes
  4515 ;;		_I2C1_ReadDataBlock
  4516 ;;		_i2c_write1ByteRegister
  4517 ;;		_i2c_writeNBytes
  4518 ;;		_i2c_read1ByteRegister
  4519 ;;		_i2c_read2ByteRegister
  4520 ;;		_i2c_write2ByteRegister
  4521 ;;		_i2c_readDataBlock
  4522 ;; This function uses a non-reentrant model
  4523 ;;
  4524                           
  4525                           
  4526                           ;psect for function _I2C1_MasterWrite
  4527  064C                     _I2C1_MasterWrite:
  4528  064C                     l3548:	
  4529                           ;incstack = 0
  4530                           ; Regs used in _I2C1_MasterWrite: [wreg-fsr1h+status,2+status,0+pclath+cstack]
  4531                           
  4532                           
  4533                           ;mcc_generated_files/i2c1_master.c: 253:     return I2C1_MasterOperation(0);;	Return val
      +                          ue of _I2C1_MasterWrite is never used
  4534  064C  3000               	movlw	0
  4535  064D  3183  238A  3186   	fcall	_I2C1_MasterOperation
  4536  0650                     l484:
  4537  0650  0008               	return
  4538  0651                     __end_of_I2C1_MasterWrite:
  4539                           
  4540                           	psect	text18
  4541  038A                     __ptext18:	
  4542 ;; *************** function _I2C1_MasterOperation *****************
  4543 ;; Defined at:
  4544 ;;		line 224 in file "mcc_generated_files/i2c1_master.c"
  4545 ;; Parameters:    Size  Location     Type
  4546 ;;  read            1    wreg     _Bool 
  4547 ;; Auto vars:     Size  Location     Type
  4548 ;;  read            1   13[BANK0 ] _Bool 
  4549 ;;  returnValue     1   14[BANK0 ] enum E355
  4550 ;; Return value:  Size  Location     Type
  4551 ;;                  1    wreg      enum E355
  4552 ;; Registers used:
  4553 ;;		wreg, fsr0l, fsr0h, fsr1l, fsr1h, status,2, status,0, pclath, cstack
  4554 ;; Tracked objects:
  4555 ;;		On entry : 0/0
  4556 ;;		On exit  : 0/0
  4557 ;;		Unchanged: 0/0
  4558 ;; Data sizes:     COMMON   BANK0   BANK1   BANK2   BANK3   BANK4   BANK5   BANK6   BANK7   BANK8   BANK9  BANK10  BANK1
      +1  BANK12
  4559 ;;      Params:         0       0       0       0       0       0       0       0       0       0       0       0       
      +0       0
  4560 ;;      Locals:         0       2       0       0       0       0       0       0       0       0       0       0       
      +0       0
  4561 ;;      Temps:          0       1       0       0       0       0       0       0       0       0       0       0       
      +0       0
  4562 ;;      Totals:         0       3       0       0       0       0       0       0       0       0       0       0       
      +0       0
  4563 ;;Total ram usage:        3 bytes
  4564 ;; Hardware stack levels used: 1
  4565 ;; Hardware stack levels required when called: 11
  4566 ;; This function calls:
  4567 ;;		_I2C1_MasterStart
  4568 ;;		_I2C1_Poller
  4569 ;; This function is called by:
  4570 ;;		_I2C1_MasterWrite
  4571 ;;		_I2C1_MasterRead
  4572 ;; This function uses a non-reentrant model
  4573 ;;
  4574                           
  4575                           
  4576                           ;psect for function _I2C1_MasterOperation
  4577  038A                     _I2C1_MasterOperation:
  4578                           
  4579                           ;incstack = 0
  4580                           ; Regs used in _I2C1_MasterOperation: [wreg-fsr1h+status,2+status,0+pclath+cstack]
  4581                           ;I2C1_MasterOperation@read stored from wreg
  4582  038A  0020               	movlb	0	; select bank0
  4583  038B  00CA               	movwf	I2C1_MasterOperation@read
  4584  038C                     l3526:
  4585                           
  4586                           ;mcc_generated_files/i2c1_master.c: 224: i2c1_error_t I2C1_MasterOperation(_Bool read);m
      +                          cc_generated_files/i2c1_master.c: 225: {;mcc_generated_files/i2c1_master.c: 226:     i2c
      +                          1_error_t returnValue = I2C1_BUSY;
  4587  038C  01CB               	clrf	I2C1_MasterOperation@returnValue
  4588  038D  0ACB               	incf	I2C1_MasterOperation@returnValue,f
  4589                           
  4590                           ;mcc_generated_files/i2c1_master.c: 227:     if(!I2C1_Status.busy)
  4591  038E  18BC               	btfsc	_I2C1_Status+28,1
  4592  038F  2B91               	goto	u1351
  4593  0390  2B92               	goto	u1350
  4594  0391                     u1351:
  4595  0391  2BA6               	goto	l3542
  4596  0392                     u1350:
  4597  0392                     l3528:
  4598                           
  4599                           ;mcc_generated_files/i2c1_master.c: 228:     {;mcc_generated_files/i2c1_master.c: 229:  
      +                                 I2C1_Status.busy = 1;
  4600  0392  14BC               	bsf	_I2C1_Status+28,1
  4601  0393                     l3530:
  4602                           
  4603                           ;mcc_generated_files/i2c1_master.c: 230:         returnValue = I2C1_NOERR;
  4604  0393  01CB               	clrf	I2C1_MasterOperation@returnValue
  4605  0394                     l3532:
  4606                           
  4607                           ;mcc_generated_files/i2c1_master.c: 232:         if(read)
  4608  0394  084A               	movf	I2C1_MasterOperation@read,w
  4609  0395  1903               	btfsc	3,2
  4610  0396  2B98               	goto	u1361
  4611  0397  2B99               	goto	u1360
  4612  0398                     u1361:
  4613  0398  2B9C               	goto	l3536
  4614  0399                     u1360:
  4615  0399                     l3534:
  4616                           
  4617                           ;mcc_generated_files/i2c1_master.c: 233:         {;mcc_generated_files/i2c1_master.c: 23
      +                          4:             I2C1_Status.state = I2C1_SEND_ADR_READ;
  4618  0399  01BA               	clrf	_I2C1_Status+26
  4619  039A  0ABA               	incf	_I2C1_Status+26,f
  4620                           
  4621                           ;mcc_generated_files/i2c1_master.c: 235:         }
  4622  039B  2BA0               	goto	l3538
  4623  039C                     l3536:
  4624                           
  4625                           ;mcc_generated_files/i2c1_master.c: 237:         {;mcc_generated_files/i2c1_master.c: 23
      +                          8:             I2C1_Status.state = I2C1_SEND_ADR_WRITE;
  4626  039C  3002               	movlw	2
  4627  039D  00C9               	movwf	??_I2C1_MasterOperation
  4628  039E  0849               	movf	??_I2C1_MasterOperation,w
  4629  039F  00BA               	movwf	_I2C1_Status+26
  4630  03A0                     l3538:
  4631                           
  4632                           ;mcc_generated_files/i2c1_master.c: 240:         I2C1_MasterStart();
  4633  03A0  3186  269E  3183   	fcall	_I2C1_MasterStart
  4634  03A3                     l3540:
  4635                           
  4636                           ;mcc_generated_files/i2c1_master.c: 241:         I2C1_Poller();
  4637  03A3  3185  25E0  3183   	fcall	_I2C1_Poller
  4638  03A6                     l3542:
  4639                           
  4640                           ;mcc_generated_files/i2c1_master.c: 243:     return returnValue;
  4641  03A6  0020               	movlb	0	; select bank0
  4642  03A7  084B               	movf	I2C1_MasterOperation@returnValue,w
  4643  03A8                     l478:
  4644  03A8  0008               	return
  4645  03A9                     __end_of_I2C1_MasterOperation:
  4646                           
  4647                           	psect	text19
  4648  05E0                     __ptext19:	
  4649 ;; *************** function _I2C1_Poller *****************
  4650 ;; Defined at:
  4651 ;;		line 312 in file "mcc_generated_files/i2c1_master.c"
  4652 ;; Parameters:    Size  Location     Type
  4653 ;;		None
  4654 ;; Auto vars:     Size  Location     Type
  4655 ;;		None
  4656 ;; Return value:  Size  Location     Type
  4657 ;;                  1    wreg      void 
  4658 ;; Registers used:
  4659 ;;		wreg, fsr0l, fsr0h, fsr1l, fsr1h, status,2, status,0, pclath, cstack
  4660 ;; Tracked objects:
  4661 ;;		On entry : 0/0
  4662 ;;		On exit  : 0/0
  4663 ;;		Unchanged: 0/0
  4664 ;; Data sizes:     COMMON   BANK0   BANK1   BANK2   BANK3   BANK4   BANK5   BANK6   BANK7   BANK8   BANK9  BANK10  BANK1
      +1  BANK12
  4665 ;;      Params:         0       0       0       0       0       0       0       0       0       0       0       0       
      +0       0
  4666 ;;      Locals:         0       0       0       0       0       0       0       0       0       0       0       0       
      +0       0
  4667 ;;      Temps:          0       0       0       0       0       0       0       0       0       0       0       0       
      +0       0
  4668 ;;      Totals:         0       0       0       0       0       0       0       0       0       0       0       0       
      +0       0
  4669 ;;Total ram usage:        0 bytes
  4670 ;; Hardware stack levels used: 1
  4671 ;; Hardware stack levels required when called: 10
  4672 ;; This function calls:
  4673 ;;		_I2C1_MasterFsm
  4674 ;;		_I2C1_MasterWaitForEvent
  4675 ;; This function is called by:
  4676 ;;		_I2C1_MasterOperation
  4677 ;; This function uses a non-reentrant model
  4678 ;;
  4679                           
  4680                           
  4681                           ;psect for function _I2C1_Poller
  4682  05E0                     _I2C1_Poller:
  4683  05E0                     l3518:	
  4684                           ;incstack = 0
  4685                           ; Regs used in _I2C1_Poller: [wreg-fsr1h+status,2+status,0+pclath+cstack]
  4686                           
  4687                           
  4688                           ;mcc_generated_files/i2c1_master.c: 314:     while(I2C1_Status.busy)
  4689  05E0  2DE7               	goto	l3524
  4690  05E1                     l3520:
  4691                           
  4692                           ;mcc_generated_files/i2c1_master.c: 315:     {;mcc_generated_files/i2c1_master.c: 316:  
      +                                 I2C1_MasterWaitForEvent();
  4693  05E1  3186  263B  3185   	fcall	_I2C1_MasterWaitForEvent
  4694  05E4                     l3522:
  4695                           
  4696                           ;mcc_generated_files/i2c1_master.c: 317:         I2C1_MasterFsm();
  4697  05E4  3182  22EF  3185   	fcall	_I2C1_MasterFsm
  4698  05E7                     l3524:
  4699                           
  4700                           ;mcc_generated_files/i2c1_master.c: 314:     while(I2C1_Status.busy)
  4701  05E7  0020               	movlb	0	; select bank0
  4702  05E8  18BC               	btfsc	_I2C1_Status+28,1
  4703  05E9  2DEB               	goto	u1341
  4704  05EA  2DEC               	goto	u1340
  4705  05EB                     u1341:
  4706  05EB  2DE1               	goto	l3520
  4707  05EC                     u1340:
  4708  05EC                     l517:
  4709  05EC  0008               	return
  4710  05ED                     __end_of_I2C1_Poller:
  4711                           
  4712                           	psect	text20
  4713  063B                     __ptext20:	
  4714 ;; *************** function _I2C1_MasterWaitForEvent *****************
  4715 ;; Defined at:
  4716 ;;		line 650 in file "mcc_generated_files/i2c1_master.c"
  4717 ;; Parameters:    Size  Location     Type
  4718 ;;		None
  4719 ;; Auto vars:     Size  Location     Type
  4720 ;;		None
  4721 ;; Return value:  Size  Location     Type
  4722 ;;                  1    wreg      void 
  4723 ;; Registers used:
  4724 ;;		None
  4725 ;; Tracked objects:
  4726 ;;		On entry : 0/0
  4727 ;;		On exit  : 0/0
  4728 ;;		Unchanged: 0/0
  4729 ;; Data sizes:     COMMON   BANK0   BANK1   BANK2   BANK3   BANK4   BANK5   BANK6   BANK7   BANK8   BANK9  BANK10  BANK1
      +1  BANK12
  4730 ;;      Params:         0       0       0       0       0       0       0       0       0       0       0       0       
      +0       0
  4731 ;;      Locals:         0       0       0       0       0       0       0       0       0       0       0       0       
      +0       0
  4732 ;;      Temps:          0       0       0       0       0       0       0       0       0       0       0       0       
      +0       0
  4733 ;;      Totals:         0       0       0       0       0       0       0       0       0       0       0       0       
      +0       0
  4734 ;;Total ram usage:        0 bytes
  4735 ;; Hardware stack levels used: 1
  4736 ;; Hardware stack levels required when called: 5
  4737 ;; This function calls:
  4738 ;;		Nothing
  4739 ;; This function is called by:
  4740 ;;		_I2C1_Poller
  4741 ;; This function uses a non-reentrant model
  4742 ;;
  4743                           
  4744                           
  4745                           ;psect for function _I2C1_MasterWaitForEvent
  4746  063B                     _I2C1_MasterWaitForEvent:
  4747  063B                     l690:	
  4748                           ;incstack = 0
  4749                           ; Regs used in _I2C1_MasterWaitForEvent: []
  4750                           ;mcc_generated_files/i2c1_master.c: 652:     while(1)
  4751                           
  4752                           
  4753                           ;mcc_generated_files/i2c1_master.c: 653:     {;mcc_generated_files/i2c1_master.c: 654:  
      +                                 if(PIR1bits.SSP1IF)
  4754  063B  0020               	movlb	0	; select bank0
  4755  063C  1D91               	btfss	17,3	;volatile
  4756  063D  2E3F               	goto	u711
  4757  063E  2E40               	goto	u710
  4758  063F                     u711:
  4759  063F  2E3B               	goto	l690
  4760  0640                     u710:
  4761  0640                     l694:
  4762  0640  0008               	return
  4763  0641                     __end_of_I2C1_MasterWaitForEvent:
  4764                           
  4765                           	psect	text21
  4766  02EF                     __ptext21:	
  4767 ;; *************** function _I2C1_MasterFsm *****************
  4768 ;; Defined at:
  4769 ;;		line 321 in file "mcc_generated_files/i2c1_master.c"
  4770 ;; Parameters:    Size  Location     Type
  4771 ;;		None
  4772 ;; Auto vars:     Size  Location     Type
  4773 ;;		None
  4774 ;; Return value:  Size  Location     Type
  4775 ;;                  1    wreg      void 
  4776 ;; Registers used:
  4777 ;;		wreg, fsr0l, fsr0h, fsr1l, fsr1h, status,2, status,0, pclath, cstack
  4778 ;; Tracked objects:
  4779 ;;		On entry : 0/0
  4780 ;;		On exit  : 0/0
  4781 ;;		Unchanged: 0/0
  4782 ;; Data sizes:     COMMON   BANK0   BANK1   BANK2   BANK3   BANK4   BANK5   BANK6   BANK7   BANK8   BANK9  BANK10  BANK1
      +1  BANK12
  4783 ;;      Params:         0       0       0       0       0       0       0       0       0       0       0       0       
      +0       0
  4784 ;;      Locals:         0       0       0       0       0       0       0       0       0       0       0       0       
      +0       0
  4785 ;;      Temps:          0       3       0       0       0       0       0       0       0       0       0       0       
      +0       0
  4786 ;;      Totals:         0       3       0       0       0       0       0       0       0       0       0       0       
      +0       0
  4787 ;;Total ram usage:        3 bytes
  4788 ;; Hardware stack levels used: 1
  4789 ;; Hardware stack levels required when called: 9
  4790 ;; This function calls:
  4791 ;;		_I2C1_DO_ADDRESS_NACK
  4792 ;;		_I2C1_DO_IDLE
  4793 ;;		_I2C1_DO_RCEN
  4794 ;;		_I2C1_DO_RESET
  4795 ;;		_I2C1_DO_RX
  4796 ;;		_I2C1_DO_RX_ACK
  4797 ;;		_I2C1_DO_RX_NACK_RESTART
  4798 ;;		_I2C1_DO_RX_NACK_STOP
  4799 ;;		_I2C1_DO_SEND_ADR_READ
  4800 ;;		_I2C1_DO_SEND_ADR_WRITE
  4801 ;;		_I2C1_DO_SEND_RESTART
  4802 ;;		_I2C1_DO_SEND_RESTART_READ
  4803 ;;		_I2C1_DO_SEND_RESTART_WRITE
  4804 ;;		_I2C1_DO_SEND_STOP
  4805 ;;		_I2C1_DO_TX
  4806 ;;		_I2C1_DO_TX_EMPTY
  4807 ;;		_I2C1_MasterClearIrq
  4808 ;;		_I2C1_MasterIsNack
  4809 ;; This function is called by:
  4810 ;;		_I2C1_Poller
  4811 ;; This function uses a non-reentrant model
  4812 ;;
  4813                           
  4814                           
  4815                           ;psect for function _I2C1_MasterFsm
  4816  02EF                     _I2C1_MasterFsm:
  4817  02EF                     l3508:	
  4818                           ;incstack = 0
  4819                           ; Regs used in _I2C1_MasterFsm: [wreg-fsr1h+status,2+status,0+pclath+cstack]
  4820                           
  4821                           
  4822                           ;mcc_generated_files/i2c1_master.c: 323:     I2C1_MasterClearIrq();
  4823  02EF  3186  26A7  3182   	fcall	_I2C1_MasterClearIrq
  4824  02F2                     l3510:
  4825                           
  4826                           ;mcc_generated_files/i2c1_master.c: 325:     if(I2C1_Status.addressNackCheck && I2C1_Mas
      +                          terIsNack())
  4827  02F2  0020               	movlb	0	; select bank0
  4828  02F3  1C3C               	btfss	_I2C1_Status+28,0
  4829  02F4  2AF6               	goto	u1321
  4830  02F5  2AF7               	goto	u1320
  4831  02F6                     u1321:
  4832  02F6  2B04               	goto	l3516
  4833  02F7                     u1320:
  4834  02F7                     l3512:
  4835  02F7  3186  2641  3182   	fcall	_I2C1_MasterIsNack
  4836  02FA  3A00               	xorlw	0
  4837  02FB  1903               	skipnz
  4838  02FC  2AFE               	goto	u1331
  4839  02FD  2AFF               	goto	u1330
  4840  02FE                     u1331:
  4841  02FE  2B04               	goto	l3516
  4842  02FF                     u1330:
  4843  02FF                     l3514:
  4844                           
  4845                           ;mcc_generated_files/i2c1_master.c: 326:     {;mcc_generated_files/i2c1_master.c: 327:  
      +                                 I2C1_Status.state = I2C1_ADDRESS_NACK;
  4846  02FF  300F               	movlw	15
  4847  0300  0020               	movlb	0	; select bank0
  4848  0301  00C6               	movwf	??_I2C1_MasterFsm
  4849  0302  0846               	movf	??_I2C1_MasterFsm,w
  4850  0303  00BA               	movwf	_I2C1_Status+26
  4851  0304                     l3516:
  4852                           
  4853                           ;mcc_generated_files/i2c1_master.c: 329:     I2C1_Status.state = i2c1_fsmStateTable[I2C1
      +                          _Status.state]();
  4854  0304  0020               	movlb	0	; select bank0
  4855  0305  083A               	movf	_I2C1_Status+26,w
  4856  0306  00C6               	movwf	??_I2C1_MasterFsm
  4857  0307  01C7               	clrf	??_I2C1_MasterFsm+1
  4858  0308  35C6               	lslf	??_I2C1_MasterFsm,f
  4859  0309  0DC7               	rlf	??_I2C1_MasterFsm+1,f
  4860  030A  306A               	movlw	low (_i2c1_fsmStateTable| (0+32768))
  4861  030B  0746               	addwf	??_I2C1_MasterFsm,w
  4862  030C  0084               	movwf	4
  4863  030D  3083               	movlw	high (_i2c1_fsmStateTable| (0+32768))
  4864  030E  3D47               	addwfc	??_I2C1_MasterFsm+1,w
  4865  030F  0085               	movwf	5
  4866  0310  3F01               	moviw [1]fsr0
  4867  0311  008A               	movwf	10
  4868  0312  3F00               	moviw [0]fsr0
  4869  0313  000A               	callw
  4870  0314  3182               	pagesel	$
  4871  0315  0020               	movlb	0	; select bank0
  4872  0316  00C8               	movwf	??_I2C1_MasterFsm+2
  4873  0317  0848               	movf	??_I2C1_MasterFsm+2,w
  4874  0318  00BA               	movwf	_I2C1_Status+26
  4875  0319                     l521:
  4876  0319  0008               	return
  4877  031A                     __end_of_I2C1_MasterFsm:
  4878                           
  4879                           	psect	text22
  4880  02C2                     __ptext22:	
  4881 ;; *************** function _I2C1_DO_ADDRESS_NACK *****************
  4882 ;; Defined at:
  4883 ;;		line 500 in file "mcc_generated_files/i2c1_master.c"
  4884 ;; Parameters:    Size  Location     Type
  4885 ;;		None
  4886 ;; Auto vars:     Size  Location     Type
  4887 ;;		None
  4888 ;; Return value:  Size  Location     Type
  4889 ;;                  1    wreg      enum E3009
  4890 ;; Registers used:
  4891 ;;		wreg, fsr0l, fsr0h, fsr1l, fsr1h, status,2, status,0, pclath, cstack
  4892 ;; Tracked objects:
  4893 ;;		On entry : 0/0
  4894 ;;		On exit  : 0/0
  4895 ;;		Unchanged: 0/0
  4896 ;; Data sizes:     COMMON   BANK0   BANK1   BANK2   BANK3   BANK4   BANK5   BANK6   BANK7   BANK8   BANK9  BANK10  BANK1
      +1  BANK12
  4897 ;;      Params:         0       0       0       0       0       0       0       0       0       0       0       0       
      +0       0
  4898 ;;      Locals:         0       0       0       0       0       0       0       0       0       0       0       0       
      +0       0
  4899 ;;      Temps:          0       3       0       0       0       0       0       0       0       0       0       0       
      +0       0
  4900 ;;      Totals:         0       3       0       0       0       0       0       0       0       0       0       0       
      +0       0
  4901 ;;Total ram usage:        3 bytes
  4902 ;; Hardware stack levels used: 1
  4903 ;; Hardware stack levels required when called: 8
  4904 ;; This function calls:
  4905 ;;		Absolute function
  4906 ;;		_I2C1_CallbackReturnReset
  4907 ;;		_I2C1_CallbackReturnStop
  4908 ;;		_I2C1_DO_SEND_RESTART
  4909 ;;		_I2C1_DO_SEND_STOP
  4910 ;;		_rd1RegCompleteHandler
  4911 ;;		_rd1RegCompleteHandler@i2c_simple_master$F1268
  4912 ;;		_rd2RegCompleteHandler
  4913 ;;		_rd2RegCompleteHandler@i2c_simple_master$F1276
  4914 ;;		_rdBlkRegCompleteHandler
  4915 ;;		_rdBlkRegCompleteHandler@i2c_simple_master$F1288
  4916 ;;		_wr1RegCompleteHandler
  4917 ;;		_wr1RegCompleteHandler@i2c_simple_master$F1258
  4918 ;;		_wr2RegCompleteHandler
  4919 ;;		_wr2RegCompleteHandler@i2c_simple_master$F1282
  4920 ;; This function is called by:
  4921 ;;		_I2C1_MasterFsm
  4922 ;; This function uses a non-reentrant model
  4923 ;;
  4924                           
  4925                           
  4926                           ;psect for function _I2C1_DO_ADDRESS_NACK
  4927  02C2                     _I2C1_DO_ADDRESS_NACK:
  4928  02C2                     l3488:	
  4929                           ;incstack = 0
  4930                           ; Regs used in _I2C1_DO_ADDRESS_NACK: [wreg-fsr1h+status,2+status,0+pclath+cstack]
  4931                           
  4932                           
  4933                           ;mcc_generated_files/i2c1_master.c: 502:     I2C1_Status.addressNackCheck = 0;
  4934  02C2  0020               	movlb	0	; select bank0
  4935  02C3  103C               	bcf	_I2C1_Status+28,0
  4936  02C4                     l3490:
  4937                           
  4938                           ;mcc_generated_files/i2c1_master.c: 503:     I2C1_Status.error = I2C1_FAIL;
  4939  02C4  3002               	movlw	2
  4940  02C5  00C3               	movwf	??_I2C1_DO_ADDRESS_NACK
  4941  02C6  0843               	movf	??_I2C1_DO_ADDRESS_NACK,w
  4942  02C7  00BB               	movwf	_I2C1_Status+27
  4943                           
  4944                           ;mcc_generated_files/i2c1_master.c: 504:     switch(I2C1_Status.callbackTable[I2C1_ADDR_
      +                          NACK](I2C1_Status.callbackPayload[I2C1_ADDR_NACK]))
  4945  02C8  2AD1               	goto	l3502
  4946  02C9                     l3492:
  4947                           
  4948                           ;mcc_generated_files/i2c1_master.c: 508:             return I2C1_DO_SEND_RESTART();
  4949  02C9  3186  266A  3182   	fcall	_I2C1_DO_SEND_RESTART
  4950  02CC  2AEE               	goto	l612
  4951  02CD                     l3496:
  4952                           
  4953                           ;mcc_generated_files/i2c1_master.c: 510:             return I2C1_DO_SEND_STOP();
  4954  02CD  3186  2665  3182   	fcall	_I2C1_DO_SEND_STOP
  4955  02D0  2AEE               	goto	l612
  4956  02D1                     l3502:
  4957  02D1  082E               	movf	low ((_I2C1_Status| 0+14)),w
  4958  02D2  00C3               	movwf	??_I2C1_DO_ADDRESS_NACK
  4959  02D3  0843               	movf	??_I2C1_DO_ADDRESS_NACK,w
  4960  02D4  00C2               	movwf	rdBlkRegCompleteHandler@i2c_simple_master$F1288@p
  4961  02D5  3004               	movlw	4
  4962  02D6  3E20               	addlw	(low (_I2C1_Status| 0))& (0+255)
  4963  02D7  0086               	movwf	6
  4964  02D8  0187               	clrf	7
  4965  02D9  3F41               	moviw [1]fsr1
  4966  02DA  008A               	movwf	10
  4967  02DB  3F40               	moviw [0]fsr1
  4968  02DC  000A               	callw
  4969  02DD  3182               	pagesel	$
  4970  02DE  0020               	movlb	0	; select bank0
  4971  02DF  00C4               	movwf	??_I2C1_DO_ADDRESS_NACK+1
  4972  02E0  01C5               	clrf	??_I2C1_DO_ADDRESS_NACK+2
  4973                           
  4974                           ; Switch on 2 bytes has been partitioned into a top level switch of size 1, and 1 sub-sw
      +                          itches
  4975                           ; Switch size 1, requested type "simple"
  4976                           ; Number of cases is 1, Range of values is 0 to 0
  4977                           ; switch strategies available:
  4978                           ; Name         Instructions Cycles
  4979                           ; simple_byte            4     3 (average)
  4980                           ; direct_byte            8     6 (fixed)
  4981                           ; jumptable            260     6 (fixed)
  4982                           ;	Chosen strategy is simple_byte
  4983  02E1  0845               	movf	??_I2C1_DO_ADDRESS_NACK+2,w
  4984  02E2  3A00               	xorlw	0	; case 0
  4985  02E3  1903               	skipnz
  4986  02E4  2AE6               	goto	l3910
  4987  02E5  2ACD               	goto	l3496
  4988  02E6                     l3910:
  4989                           
  4990                           ; Switch size 1, requested type "simple"
  4991                           ; Number of cases is 2, Range of values is 2 to 3
  4992                           ; switch strategies available:
  4993                           ; Name         Instructions Cycles
  4994                           ; simple_byte            7     4 (average)
  4995                           ; direct_byte           13     9 (fixed)
  4996                           ; jumptable            263     9 (fixed)
  4997                           ;	Chosen strategy is simple_byte
  4998  02E6  0844               	movf	??_I2C1_DO_ADDRESS_NACK+1,w
  4999  02E7  3A02               	xorlw	2	; case 2
  5000  02E8  1903               	skipnz
  5001  02E9  2AC9               	goto	l3492
  5002  02EA  3A01               	xorlw	1	; case 3
  5003  02EB  1903               	skipnz
  5004  02EC  2AC9               	goto	l3492
  5005  02ED  2ACD               	goto	l3496
  5006  02EE                     l612:
  5007  02EE  0008               	return
  5008  02EF                     __end_of_I2C1_DO_ADDRESS_NACK:
  5009                           
  5010                           	psect	text23
  5011  0651                     __ptext23:	
  5012 ;; *************** function _I2C1_DO_RESET *****************
  5013 ;; Defined at:
  5014 ;;		line 494 in file "mcc_generated_files/i2c1_master.c"
  5015 ;; Parameters:    Size  Location     Type
  5016 ;;		None
  5017 ;; Auto vars:     Size  Location     Type
  5018 ;;		None
  5019 ;; Return value:  Size  Location     Type
  5020 ;;                  1    wreg      enum E3009
  5021 ;; Registers used:
  5022 ;;		wreg, status,2
  5023 ;; Tracked objects:
  5024 ;;		On entry : 0/0
  5025 ;;		On exit  : 0/0
  5026 ;;		Unchanged: 0/0
  5027 ;; Data sizes:     COMMON   BANK0   BANK1   BANK2   BANK3   BANK4   BANK5   BANK6   BANK7   BANK8   BANK9  BANK10  BANK1
      +1  BANK12
  5028 ;;      Params:         0       0       0       0       0       0       0       0       0       0       0       0       
      +0       0
  5029 ;;      Locals:         0       0       0       0       0       0       0       0       0       0       0       0       
      +0       0
  5030 ;;      Temps:          0       0       0       0       0       0       0       0       0       0       0       0       
      +0       0
  5031 ;;      Totals:         0       0       0       0       0       0       0       0       0       0       0       0       
      +0       0
  5032 ;;Total ram usage:        0 bytes
  5033 ;; Hardware stack levels used: 1
  5034 ;; Hardware stack levels required when called: 5
  5035 ;; This function calls:
  5036 ;;		Nothing
  5037 ;; This function is called by:
  5038 ;;		_I2C1_MasterFsm
  5039 ;; This function uses a non-reentrant model
  5040 ;;
  5041                           
  5042                           
  5043                           ;psect for function _I2C1_DO_RESET
  5044  0651                     _I2C1_DO_RESET:
  5045  0651                     l2670:	
  5046                           ;incstack = 0
  5047                           ; Regs used in _I2C1_DO_RESET: [wreg+status,2]
  5048                           
  5049                           
  5050                           ;mcc_generated_files/i2c1_master.c: 496:     I2C1_Status.busy = 0;
  5051  0651  0020               	movlb	0	; select bank0
  5052  0652  10BC               	bcf	_I2C1_Status+28,1
  5053  0653                     l2672:
  5054                           
  5055                           ;mcc_generated_files/i2c1_master.c: 497:     I2C1_Status.error = I2C1_NOERR;
  5056  0653  01BB               	clrf	_I2C1_Status+27
  5057  0654                     l2674:
  5058                           
  5059                           ;mcc_generated_files/i2c1_master.c: 498:     return I2C1_RESET;
  5060  0654  300E               	movlw	14
  5061  0655                     l606:
  5062  0655  0008               	return
  5063  0656                     __end_of_I2C1_DO_RESET:
  5064                           
  5065                           	psect	text24
  5066  0656                     __ptext24:	
  5067 ;; *************** function _I2C1_DO_RX_NACK_RESTART *****************
  5068 ;; Defined at:
  5069 ;;		line 488 in file "mcc_generated_files/i2c1_master.c"
  5070 ;; Parameters:    Size  Location     Type
  5071 ;;		None
  5072 ;; Auto vars:     Size  Location     Type
  5073 ;;		None
  5074 ;; Return value:  Size  Location     Type
  5075 ;;                  1    wreg      enum E3009
  5076 ;; Registers used:
  5077 ;;		wreg, status,2, status,0, pclath, cstack
  5078 ;; Tracked objects:
  5079 ;;		On entry : 0/0
  5080 ;;		On exit  : 0/0
  5081 ;;		Unchanged: 0/0
  5082 ;; Data sizes:     COMMON   BANK0   BANK1   BANK2   BANK3   BANK4   BANK5   BANK6   BANK7   BANK8   BANK9  BANK10  BANK1
      +1  BANK12
  5083 ;;      Params:         0       0       0       0       0       0       0       0       0       0       0       0       
      +0       0
  5084 ;;      Locals:         0       0       0       0       0       0       0       0       0       0       0       0       
      +0       0
  5085 ;;      Temps:          0       0       0       0       0       0       0       0       0       0       0       0       
      +0       0
  5086 ;;      Totals:         0       0       0       0       0       0       0       0       0       0       0       0       
      +0       0
  5087 ;;Total ram usage:        0 bytes
  5088 ;; Hardware stack levels used: 1
  5089 ;; Hardware stack levels required when called: 6
  5090 ;; This function calls:
  5091 ;;		_I2C1_MasterSendNack
  5092 ;; This function is called by:
  5093 ;;		_I2C1_DO_RX
  5094 ;;		_I2C1_MasterFsm
  5095 ;; This function uses a non-reentrant model
  5096 ;;
  5097                           
  5098                           
  5099                           ;psect for function _I2C1_DO_RX_NACK_RESTART
  5100  0656                     _I2C1_DO_RX_NACK_RESTART:
  5101  0656                     l2474:	
  5102                           ;incstack = 0
  5103                           ; Regs used in _I2C1_DO_RX_NACK_RESTART: [wreg+status,2+status,0+pclath+cstack]
  5104                           
  5105                           
  5106                           ;mcc_generated_files/i2c1_master.c: 490:     I2C1_MasterSendNack();
  5107  0656  3186  268B  3186   	fcall	_I2C1_MasterSendNack
  5108  0659                     l2476:
  5109                           
  5110                           ;mcc_generated_files/i2c1_master.c: 491:     return I2C1_SEND_RESTART;
  5111  0659  3009               	movlw	9
  5112  065A                     l603:
  5113  065A  0008               	return
  5114  065B                     __end_of_I2C1_DO_RX_NACK_RESTART:
  5115                           
  5116                           	psect	text25
  5117  065B                     __ptext25:	
  5118 ;; *************** function _I2C1_DO_RX_NACK_STOP *****************
  5119 ;; Defined at:
  5120 ;;		line 482 in file "mcc_generated_files/i2c1_master.c"
  5121 ;; Parameters:    Size  Location     Type
  5122 ;;		None
  5123 ;; Auto vars:     Size  Location     Type
  5124 ;;		None
  5125 ;; Return value:  Size  Location     Type
  5126 ;;                  1    wreg      enum E3009
  5127 ;; Registers used:
  5128 ;;		wreg, status,2, status,0, pclath, cstack
  5129 ;; Tracked objects:
  5130 ;;		On entry : 0/0
  5131 ;;		On exit  : 0/0
  5132 ;;		Unchanged: 0/0
  5133 ;; Data sizes:     COMMON   BANK0   BANK1   BANK2   BANK3   BANK4   BANK5   BANK6   BANK7   BANK8   BANK9  BANK10  BANK1
      +1  BANK12
  5134 ;;      Params:         0       0       0       0       0       0       0       0       0       0       0       0       
      +0       0
  5135 ;;      Locals:         0       0       0       0       0       0       0       0       0       0       0       0       
      +0       0
  5136 ;;      Temps:          0       0       0       0       0       0       0       0       0       0       0       0       
      +0       0
  5137 ;;      Totals:         0       0       0       0       0       0       0       0       0       0       0       0       
      +0       0
  5138 ;;Total ram usage:        0 bytes
  5139 ;; Hardware stack levels used: 1
  5140 ;; Hardware stack levels required when called: 6
  5141 ;; This function calls:
  5142 ;;		_I2C1_MasterSendNack
  5143 ;; This function is called by:
  5144 ;;		_I2C1_DO_RX
  5145 ;;		_I2C1_MasterFsm
  5146 ;; This function uses a non-reentrant model
  5147 ;;
  5148                           
  5149                           
  5150                           ;psect for function _I2C1_DO_RX_NACK_STOP
  5151  065B                     _I2C1_DO_RX_NACK_STOP:
  5152  065B                     l2480:	
  5153                           ;incstack = 0
  5154                           ; Regs used in _I2C1_DO_RX_NACK_STOP: [wreg+status,2+status,0+pclath+cstack]
  5155                           
  5156                           
  5157                           ;mcc_generated_files/i2c1_master.c: 484:     I2C1_MasterSendNack();
  5158  065B  3186  268B  3186   	fcall	_I2C1_MasterSendNack
  5159  065E                     l2482:
  5160                           
  5161                           ;mcc_generated_files/i2c1_master.c: 485:     return I2C1_SEND_STOP;
  5162  065E  300A               	movlw	10
  5163  065F                     l600:
  5164  065F  0008               	return
  5165  0660                     __end_of_I2C1_DO_RX_NACK_STOP:
  5166                           
  5167                           	psect	text26
  5168  0660                     __ptext26:	
  5169 ;; *************** function _I2C1_DO_RX_ACK *****************
  5170 ;; Defined at:
  5171 ;;		line 475 in file "mcc_generated_files/i2c1_master.c"
  5172 ;; Parameters:    Size  Location     Type
  5173 ;;		None
  5174 ;; Auto vars:     Size  Location     Type
  5175 ;;		None
  5176 ;; Return value:  Size  Location     Type
  5177 ;;                  1    wreg      enum E3009
  5178 ;; Registers used:
  5179 ;;		wreg, status,2, status,0, pclath, cstack
  5180 ;; Tracked objects:
  5181 ;;		On entry : 0/0
  5182 ;;		On exit  : 0/0
  5183 ;;		Unchanged: 0/0
  5184 ;; Data sizes:     COMMON   BANK0   BANK1   BANK2   BANK3   BANK4   BANK5   BANK6   BANK7   BANK8   BANK9  BANK10  BANK1
      +1  BANK12
  5185 ;;      Params:         0       0       0       0       0       0       0       0       0       0       0       0       
      +0       0
  5186 ;;      Locals:         0       0       0       0       0       0       0       0       0       0       0       0       
      +0       0
  5187 ;;      Temps:          0       0       0       0       0       0       0       0       0       0       0       0       
      +0       0
  5188 ;;      Totals:         0       0       0       0       0       0       0       0       0       0       0       0       
      +0       0
  5189 ;;Total ram usage:        0 bytes
  5190 ;; Hardware stack levels used: 1
  5191 ;; Hardware stack levels required when called: 6
  5192 ;; This function calls:
  5193 ;;		_I2C1_MasterSendAck
  5194 ;; This function is called by:
  5195 ;;		_I2C1_MasterFsm
  5196 ;; This function uses a non-reentrant model
  5197 ;;
  5198                           
  5199                           
  5200                           ;psect for function _I2C1_DO_RX_ACK
  5201  0660                     _I2C1_DO_RX_ACK:
  5202  0660                     l2664:	
  5203                           ;incstack = 0
  5204                           ; Regs used in _I2C1_DO_RX_ACK: [wreg+status,2+status,0+pclath+cstack]
  5205                           
  5206                           
  5207                           ;mcc_generated_files/i2c1_master.c: 477:     I2C1_MasterSendAck();
  5208  0660  3186  2687  3186   	fcall	_I2C1_MasterSendAck
  5209  0663                     l2666:
  5210                           
  5211                           ;mcc_generated_files/i2c1_master.c: 478:     return I2C1_RCEN;
  5212  0663  3005               	movlw	5
  5213  0664                     l597:
  5214  0664  0008               	return
  5215  0665                     __end_of_I2C1_DO_RX_ACK:
  5216                           
  5217                           	psect	text27
  5218  0665                     __ptext27:	
  5219 ;; *************** function _I2C1_DO_SEND_STOP *****************
  5220 ;; Defined at:
  5221 ;;		line 469 in file "mcc_generated_files/i2c1_master.c"
  5222 ;; Parameters:    Size  Location     Type
  5223 ;;		None
  5224 ;; Auto vars:     Size  Location     Type
  5225 ;;		None
  5226 ;; Return value:  Size  Location     Type
  5227 ;;                  1    wreg      enum E3009
  5228 ;; Registers used:
  5229 ;;		wreg, status,2, status,0, pclath, cstack
  5230 ;; Tracked objects:
  5231 ;;		On entry : 0/0
  5232 ;;		On exit  : 0/0
  5233 ;;		Unchanged: 0/0
  5234 ;; Data sizes:     COMMON   BANK0   BANK1   BANK2   BANK3   BANK4   BANK5   BANK6   BANK7   BANK8   BANK9  BANK10  BANK1
      +1  BANK12
  5235 ;;      Params:         0       0       0       0       0       0       0       0       0       0       0       0       
      +0       0
  5236 ;;      Locals:         0       0       0       0       0       0       0       0       0       0       0       0       
      +0       0
  5237 ;;      Temps:          0       0       0       0       0       0       0       0       0       0       0       0       
      +0       0
  5238 ;;      Totals:         0       0       0       0       0       0       0       0       0       0       0       0       
      +0       0
  5239 ;;Total ram usage:        0 bytes
  5240 ;; Hardware stack levels used: 1
  5241 ;; Hardware stack levels required when called: 6
  5242 ;; This function calls:
  5243 ;;		_I2C1_MasterStop
  5244 ;; This function is called by:
  5245 ;;		_I2C1_DO_TX
  5246 ;;		_I2C1_DO_TX_EMPTY
  5247 ;;		_I2C1_DO_ADDRESS_NACK
  5248 ;;		_I2C1_MasterFsm
  5249 ;; This function uses a non-reentrant model
  5250 ;;
  5251                           
  5252                           
  5253                           ;psect for function _I2C1_DO_SEND_STOP
  5254  0665                     _I2C1_DO_SEND_STOP:
  5255  0665                     l2462:	
  5256                           ;incstack = 0
  5257                           ; Regs used in _I2C1_DO_SEND_STOP: [wreg+status,2+status,0+pclath+cstack]
  5258                           
  5259                           
  5260                           ;mcc_generated_files/i2c1_master.c: 471:     I2C1_MasterStop();
  5261  0665  3186  2698  3186   	fcall	_I2C1_MasterStop
  5262  0668                     l2464:
  5263                           
  5264                           ;mcc_generated_files/i2c1_master.c: 472:     return I2C1_IDLE;
  5265  0668  3000               	movlw	0
  5266  0669                     l594:
  5267  0669  0008               	return
  5268  066A                     __end_of_I2C1_DO_SEND_STOP:
  5269                           
  5270                           	psect	text28
  5271  066A                     __ptext28:	
  5272 ;; *************** function _I2C1_DO_SEND_RESTART *****************
  5273 ;; Defined at:
  5274 ;;		line 463 in file "mcc_generated_files/i2c1_master.c"
  5275 ;; Parameters:    Size  Location     Type
  5276 ;;		None
  5277 ;; Auto vars:     Size  Location     Type
  5278 ;;		None
  5279 ;; Return value:  Size  Location     Type
  5280 ;;                  1    wreg      enum E3009
  5281 ;; Registers used:
  5282 ;;		wreg, status,2, status,0, pclath, cstack
  5283 ;; Tracked objects:
  5284 ;;		On entry : 0/0
  5285 ;;		On exit  : 0/0
  5286 ;;		Unchanged: 0/0
  5287 ;; Data sizes:     COMMON   BANK0   BANK1   BANK2   BANK3   BANK4   BANK5   BANK6   BANK7   BANK8   BANK9  BANK10  BANK1
      +1  BANK12
  5288 ;;      Params:         0       0       0       0       0       0       0       0       0       0       0       0       
      +0       0
  5289 ;;      Locals:         0       0       0       0       0       0       0       0       0       0       0       0       
      +0       0
  5290 ;;      Temps:          0       0       0       0       0       0       0       0       0       0       0       0       
      +0       0
  5291 ;;      Totals:         0       0       0       0       0       0       0       0       0       0       0       0       
      +0       0
  5292 ;;Total ram usage:        0 bytes
  5293 ;; Hardware stack levels used: 1
  5294 ;; Hardware stack levels required when called: 6
  5295 ;; This function calls:
  5296 ;;		_I2C1_MasterEnableRestart
  5297 ;; This function is called by:
  5298 ;;		_I2C1_DO_TX_EMPTY
  5299 ;;		_I2C1_DO_ADDRESS_NACK
  5300 ;;		_I2C1_MasterFsm
  5301 ;; This function uses a non-reentrant model
  5302 ;;
  5303                           
  5304                           
  5305                           ;psect for function _I2C1_DO_SEND_RESTART
  5306  066A                     _I2C1_DO_SEND_RESTART:
  5307  066A                     l2488:	
  5308                           ;incstack = 0
  5309                           ; Regs used in _I2C1_DO_SEND_RESTART: [wreg+status,2+status,0+pclath+cstack]
  5310                           
  5311                           
  5312                           ;mcc_generated_files/i2c1_master.c: 465:     I2C1_MasterEnableRestart();
  5313  066A  3186  269B  3186   	fcall	_I2C1_MasterEnableRestart
  5314  066D                     l2490:
  5315                           
  5316                           ;mcc_generated_files/i2c1_master.c: 466:     return I2C1_SEND_ADR_READ;
  5317  066D  3001               	movlw	1
  5318  066E                     l591:
  5319  066E  0008               	return
  5320  066F                     __end_of_I2C1_DO_SEND_RESTART:
  5321                           
  5322                           	psect	text29
  5323  066F                     __ptext29:	
  5324 ;; *************** function _I2C1_DO_SEND_RESTART_WRITE *****************
  5325 ;; Defined at:
  5326 ;;		line 456 in file "mcc_generated_files/i2c1_master.c"
  5327 ;; Parameters:    Size  Location     Type
  5328 ;;		None
  5329 ;; Auto vars:     Size  Location     Type
  5330 ;;		None
  5331 ;; Return value:  Size  Location     Type
  5332 ;;                  1    wreg      enum E3009
  5333 ;; Registers used:
  5334 ;;		wreg, status,2, status,0, pclath, cstack
  5335 ;; Tracked objects:
  5336 ;;		On entry : 0/0
  5337 ;;		On exit  : 0/0
  5338 ;;		Unchanged: 0/0
  5339 ;; Data sizes:     COMMON   BANK0   BANK1   BANK2   BANK3   BANK4   BANK5   BANK6   BANK7   BANK8   BANK9  BANK10  BANK1
      +1  BANK12
  5340 ;;      Params:         0       0       0       0       0       0       0       0       0       0       0       0       
      +0       0
  5341 ;;      Locals:         0       0       0       0       0       0       0       0       0       0       0       0       
      +0       0
  5342 ;;      Temps:          0       0       0       0       0       0       0       0       0       0       0       0       
      +0       0
  5343 ;;      Totals:         0       0       0       0       0       0       0       0       0       0       0       0       
      +0       0
  5344 ;;Total ram usage:        0 bytes
  5345 ;; Hardware stack levels used: 1
  5346 ;; Hardware stack levels required when called: 6
  5347 ;; This function calls:
  5348 ;;		_I2C1_MasterEnableRestart
  5349 ;; This function is called by:
  5350 ;;		_I2C1_DO_TX
  5351 ;;		_I2C1_MasterFsm
  5352 ;; This function uses a non-reentrant model
  5353 ;;
  5354                           
  5355                           
  5356                           ;psect for function _I2C1_DO_SEND_RESTART_WRITE
  5357  066F                     _I2C1_DO_SEND_RESTART_WRITE:
  5358  066F                     l2456:	
  5359                           ;incstack = 0
  5360                           ; Regs used in _I2C1_DO_SEND_RESTART_WRITE: [wreg+status,2+status,0+pclath+cstack]
  5361                           
  5362                           
  5363                           ;mcc_generated_files/i2c1_master.c: 458:     I2C1_MasterEnableRestart();
  5364  066F  3186  269B  3186   	fcall	_I2C1_MasterEnableRestart
  5365  0672                     l2458:
  5366                           
  5367                           ;mcc_generated_files/i2c1_master.c: 459:     return I2C1_SEND_ADR_WRITE;
  5368  0672  3002               	movlw	2
  5369  0673                     l588:
  5370  0673  0008               	return
  5371  0674                     __end_of_I2C1_DO_SEND_RESTART_WRITE:
  5372                           
  5373                           	psect	text30
  5374  0674                     __ptext30:	
  5375 ;; *************** function _I2C1_DO_SEND_RESTART_READ *****************
  5376 ;; Defined at:
  5377 ;;		line 450 in file "mcc_generated_files/i2c1_master.c"
  5378 ;; Parameters:    Size  Location     Type
  5379 ;;		None
  5380 ;; Auto vars:     Size  Location     Type
  5381 ;;		None
  5382 ;; Return value:  Size  Location     Type
  5383 ;;                  1    wreg      enum E3009
  5384 ;; Registers used:
  5385 ;;		wreg, status,2, status,0, pclath, cstack
  5386 ;; Tracked objects:
  5387 ;;		On entry : 0/0
  5388 ;;		On exit  : 0/0
  5389 ;;		Unchanged: 0/0
  5390 ;; Data sizes:     COMMON   BANK0   BANK1   BANK2   BANK3   BANK4   BANK5   BANK6   BANK7   BANK8   BANK9  BANK10  BANK1
      +1  BANK12
  5391 ;;      Params:         0       0       0       0       0       0       0       0       0       0       0       0       
      +0       0
  5392 ;;      Locals:         0       0       0       0       0       0       0       0       0       0       0       0       
      +0       0
  5393 ;;      Temps:          0       0       0       0       0       0       0       0       0       0       0       0       
      +0       0
  5394 ;;      Totals:         0       0       0       0       0       0       0       0       0       0       0       0       
      +0       0
  5395 ;;Total ram usage:        0 bytes
  5396 ;; Hardware stack levels used: 1
  5397 ;; Hardware stack levels required when called: 6
  5398 ;; This function calls:
  5399 ;;		_I2C1_MasterEnableRestart
  5400 ;; This function is called by:
  5401 ;;		_I2C1_DO_TX
  5402 ;;		_I2C1_MasterFsm
  5403 ;; This function uses a non-reentrant model
  5404 ;;
  5405                           
  5406                           
  5407                           ;psect for function _I2C1_DO_SEND_RESTART_READ
  5408  0674                     _I2C1_DO_SEND_RESTART_READ:
  5409  0674                     l2450:	
  5410                           ;incstack = 0
  5411                           ; Regs used in _I2C1_DO_SEND_RESTART_READ: [wreg+status,2+status,0+pclath+cstack]
  5412                           
  5413                           
  5414                           ;mcc_generated_files/i2c1_master.c: 452:     I2C1_MasterEnableRestart();
  5415  0674  3186  269B  3186   	fcall	_I2C1_MasterEnableRestart
  5416  0677                     l2452:
  5417                           
  5418                           ;mcc_generated_files/i2c1_master.c: 453:     return I2C1_SEND_ADR_READ;
  5419  0677  3001               	movlw	1
  5420  0678                     l585:
  5421  0678  0008               	return
  5422  0679                     __end_of_I2C1_DO_SEND_RESTART_READ:
  5423                           
  5424                           	psect	text31
  5425  062E                     __ptext31:	
  5426 ;; *************** function _I2C1_DO_RCEN *****************
  5427 ;; Defined at:
  5428 ;;		line 402 in file "mcc_generated_files/i2c1_master.c"
  5429 ;; Parameters:    Size  Location     Type
  5430 ;;		None
  5431 ;; Auto vars:     Size  Location     Type
  5432 ;;		None
  5433 ;; Return value:  Size  Location     Type
  5434 ;;                  1    wreg      enum E3009
  5435 ;; Registers used:
  5436 ;;		wreg, status,2, status,0, pclath, cstack
  5437 ;; Tracked objects:
  5438 ;;		On entry : 0/0
  5439 ;;		On exit  : 0/0
  5440 ;;		Unchanged: 0/0
  5441 ;; Data sizes:     COMMON   BANK0   BANK1   BANK2   BANK3   BANK4   BANK5   BANK6   BANK7   BANK8   BANK9  BANK10  BANK1
      +1  BANK12
  5442 ;;      Params:         0       0       0       0       0       0       0       0       0       0       0       0       
      +0       0
  5443 ;;      Locals:         0       0       0       0       0       0       0       0       0       0       0       0       
      +0       0
  5444 ;;      Temps:          0       0       0       0       0       0       0       0       0       0       0       0       
      +0       0
  5445 ;;      Totals:         0       0       0       0       0       0       0       0       0       0       0       0       
      +0       0
  5446 ;;Total ram usage:        0 bytes
  5447 ;; Hardware stack levels used: 1
  5448 ;; Hardware stack levels required when called: 6
  5449 ;; This function calls:
  5450 ;;		_I2C1_MasterStartRx
  5451 ;; This function is called by:
  5452 ;;		_I2C1_MasterFsm
  5453 ;; This function uses a non-reentrant model
  5454 ;;
  5455                           
  5456                           
  5457                           ;psect for function _I2C1_DO_RCEN
  5458  062E                     _I2C1_DO_RCEN:
  5459  062E                     l2632:	
  5460                           ;incstack = 0
  5461                           ; Regs used in _I2C1_DO_RCEN: [wreg+status,2+status,0+pclath+cstack]
  5462                           
  5463                           
  5464                           ;mcc_generated_files/i2c1_master.c: 404:     I2C1_Status.addressNackCheck = 0;
  5465  062E  0020               	movlb	0	; select bank0
  5466  062F  103C               	bcf	_I2C1_Status+28,0
  5467  0630                     l2634:
  5468                           
  5469                           ;mcc_generated_files/i2c1_master.c: 405:     I2C1_MasterStartRx();
  5470  0630  3186  2695  3186   	fcall	_I2C1_MasterStartRx
  5471  0633                     l2636:
  5472                           
  5473                           ;mcc_generated_files/i2c1_master.c: 406:     return I2C1_RX;
  5474  0633  3004               	movlw	4
  5475  0634                     l561:
  5476  0634  0008               	return
  5477  0635                     __end_of_I2C1_DO_RCEN:
  5478                           
  5479                           	psect	text32
  5480  01A6                     __ptext32:	
  5481 ;; *************** function _I2C1_DO_RX *****************
  5482 ;; Defined at:
  5483 ;;		line 378 in file "mcc_generated_files/i2c1_master.c"
  5484 ;; Parameters:    Size  Location     Type
  5485 ;;		None
  5486 ;; Auto vars:     Size  Location     Type
  5487 ;;		None
  5488 ;; Return value:  Size  Location     Type
  5489 ;;                  1    wreg      enum E3009
  5490 ;; Registers used:
  5491 ;;		wreg, fsr0l, fsr0h, fsr1l, fsr1h, status,2, status,0, pclath, cstack
  5492 ;; Tracked objects:
  5493 ;;		On entry : 0/0
  5494 ;;		On exit  : 0/0
  5495 ;;		Unchanged: 0/0
  5496 ;; Data sizes:     COMMON   BANK0   BANK1   BANK2   BANK3   BANK4   BANK5   BANK6   BANK7   BANK8   BANK9  BANK10  BANK1
      +1  BANK12
  5497 ;;      Params:         0       0       0       0       0       0       0       0       0       0       0       0       
      +0       0
  5498 ;;      Locals:         0       0       0       0       0       0       0       0       0       0       0       0       
      +0       0
  5499 ;;      Temps:          0       3       0       0       0       0       0       0       0       0       0       0       
      +0       0
  5500 ;;      Totals:         0       3       0       0       0       0       0       0       0       0       0       0       
      +0       0
  5501 ;;Total ram usage:        3 bytes
  5502 ;; Hardware stack levels used: 1
  5503 ;; Hardware stack levels required when called: 8
  5504 ;; This function calls:
  5505 ;;		Absolute function
  5506 ;;		_I2C1_CallbackReturnReset
  5507 ;;		_I2C1_CallbackReturnStop
  5508 ;;		_I2C1_DO_RX_NACK_RESTART
  5509 ;;		_I2C1_DO_RX_NACK_STOP
  5510 ;;		_I2C1_MasterGetRxData
  5511 ;;		_I2C1_MasterSendAck
  5512 ;;		_rd1RegCompleteHandler
  5513 ;;		_rd1RegCompleteHandler@i2c_simple_master$F1268
  5514 ;;		_rd2RegCompleteHandler
  5515 ;;		_rd2RegCompleteHandler@i2c_simple_master$F1276
  5516 ;;		_rdBlkRegCompleteHandler
  5517 ;;		_rdBlkRegCompleteHandler@i2c_simple_master$F1288
  5518 ;;		_wr1RegCompleteHandler
  5519 ;;		_wr1RegCompleteHandler@i2c_simple_master$F1258
  5520 ;;		_wr2RegCompleteHandler
  5521 ;;		_wr2RegCompleteHandler@i2c_simple_master$F1282
  5522 ;; This function is called by:
  5523 ;;		_I2C1_MasterFsm
  5524 ;; This function uses a non-reentrant model
  5525 ;;
  5526                           
  5527                           
  5528                           ;psect for function _I2C1_DO_RX
  5529  01A6                     _I2C1_DO_RX:
  5530  01A6                     l3434:	
  5531                           ;incstack = 0
  5532                           ; Regs used in _I2C1_DO_RX: [wreg-fsr1h+status,2+status,0+pclath+cstack]
  5533                           
  5534                           
  5535                           ;mcc_generated_files/i2c1_master.c: 380:     *I2C1_Status.data_ptr++ = I2C1_MasterGetRxD
      +                          ata();
  5536  01A6  3186  2692  3181   	fcall	_I2C1_MasterGetRxData
  5537  01A9  0020               	movlb	0	; select bank0
  5538  01AA  00C3               	movwf	??_I2C1_DO_RX
  5539  01AB  0837               	movf	low ((_I2C1_Status| 0+23)),w
  5540  01AC  0086               	movwf	6
  5541  01AD  0187               	clrf	7
  5542  01AE  0843               	movf	??_I2C1_DO_RX,w
  5543  01AF  0081               	movwf	1
  5544  01B0                     l3436:
  5545  01B0  3001               	movlw	1
  5546  01B1  00C3               	movwf	??_I2C1_DO_RX
  5547  01B2  0843               	movf	??_I2C1_DO_RX,w
  5548  01B3  07B7               	addwf	low ((_I2C1_Status| 0+23)),f
  5549  01B4                     l3438:
  5550                           
  5551                           ;mcc_generated_files/i2c1_master.c: 381:     if(--I2C1_Status.data_length)
  5552  01B4  3001               	movlw	1
  5553  01B5  02B8               	subwf	_I2C1_Status+24,f
  5554  01B6  3000               	movlw	0
  5555  01B7  3BB9               	subwfb	_I2C1_Status+25,f
  5556  01B8  0838               	movf	_I2C1_Status+24,w
  5557  01B9  0439               	iorwf	_I2C1_Status+25,w
  5558  01BA  1903               	btfsc	3,2
  5559  01BB  29BD               	goto	u1311
  5560  01BC  29BE               	goto	u1310
  5561  01BD                     u1311:
  5562  01BD  29C3               	goto	l549
  5563  01BE                     u1310:
  5564  01BE                     l3440:
  5565                           
  5566                           ;mcc_generated_files/i2c1_master.c: 382:     {;mcc_generated_files/i2c1_master.c: 383:  
      +                                 I2C1_MasterSendAck();
  5567  01BE  3186  2687  3181   	fcall	_I2C1_MasterSendAck
  5568  01C1                     l3442:
  5569                           
  5570                           ;mcc_generated_files/i2c1_master.c: 384:         return I2C1_RCEN;
  5571  01C1  3005               	movlw	5
  5572  01C2  29EC               	goto	l550
  5573  01C3                     l549:	
  5574                           ;mcc_generated_files/i2c1_master.c: 386:     else
  5575                           
  5576                           
  5577                           ;mcc_generated_files/i2c1_master.c: 387:     {;mcc_generated_files/i2c1_master.c: 388:  
      +                                 I2C1_Status.bufferFree = 1;
  5578  01C3  15BC               	bsf	_I2C1_Status+28,3
  5579                           
  5580                           ;mcc_generated_files/i2c1_master.c: 389:         switch(I2C1_Status.callbackTable[I2C1_D
      +                          ATA_COMPLETE](I2C1_Status.callbackPayload[I2C1_DATA_COMPLETE]))
  5581  01C4  29CD               	goto	l3458
  5582  01C5                     l3448:
  5583                           
  5584                           ;mcc_generated_files/i2c1_master.c: 393:                 return I2C1_DO_RX_NACK_RESTART(
      +                          );
  5585  01C5  3186  2656  3181   	fcall	_I2C1_DO_RX_NACK_RESTART
  5586  01C8  29EC               	goto	l550
  5587  01C9                     l3452:
  5588                           
  5589                           ;mcc_generated_files/i2c1_master.c: 397:                 return I2C1_DO_RX_NACK_STOP();
  5590  01C9  3186  265B  3181   	fcall	_I2C1_DO_RX_NACK_STOP
  5591  01CC  29EC               	goto	l550
  5592  01CD                     l3458:
  5593  01CD  082C               	movf	low ((_I2C1_Status| 0+12)),w
  5594  01CE  00C3               	movwf	??_I2C1_DO_RX
  5595  01CF  0843               	movf	??_I2C1_DO_RX,w
  5596  01D0  00C2               	movwf	rdBlkRegCompleteHandler@i2c_simple_master$F1288@p
  5597  01D1  0821               	movf	_I2C1_Status+1,w
  5598  01D2  008A               	movwf	10
  5599  01D3  0820               	movf	_I2C1_Status,w
  5600  01D4  000A               	callw
  5601  01D5  3181               	pagesel	$
  5602  01D6  0020               	movlb	0	; select bank0
  5603  01D7  00C4               	movwf	??_I2C1_DO_RX+1
  5604  01D8  01C5               	clrf	??_I2C1_DO_RX+2
  5605                           
  5606                           ; Switch on 2 bytes has been partitioned into a top level switch of size 1, and 1 sub-sw
      +                          itches
  5607                           ; Switch size 1, requested type "simple"
  5608                           ; Number of cases is 1, Range of values is 0 to 0
  5609                           ; switch strategies available:
  5610                           ; Name         Instructions Cycles
  5611                           ; simple_byte            4     3 (average)
  5612                           ; direct_byte            8     6 (fixed)
  5613                           ; jumptable            260     6 (fixed)
  5614                           ;	Chosen strategy is simple_byte
  5615  01D9  0845               	movf	??_I2C1_DO_RX+2,w
  5616  01DA  3A00               	xorlw	0	; case 0
  5617  01DB  1903               	skipnz
  5618  01DC  29DE               	goto	l3912
  5619  01DD  29C9               	goto	l3452
  5620  01DE                     l3912:
  5621                           
  5622                           ; Switch size 1, requested type "simple"
  5623                           ; Number of cases is 4, Range of values is 1 to 4
  5624                           ; switch strategies available:
  5625                           ; Name         Instructions Cycles
  5626                           ; simple_byte           13     7 (average)
  5627                           ; direct_byte           17     9 (fixed)
  5628                           ; jumptable            263     9 (fixed)
  5629                           ;	Chosen strategy is simple_byte
  5630  01DE  0844               	movf	??_I2C1_DO_RX+1,w
  5631  01DF  3A01               	xorlw	1	; case 1
  5632  01E0  1903               	skipnz
  5633  01E1  29C9               	goto	l3452
  5634  01E2  3A03               	xorlw	3	; case 2
  5635  01E3  1903               	skipnz
  5636  01E4  29C5               	goto	l3448
  5637  01E5  3A01               	xorlw	1	; case 3
  5638  01E6  1903               	skipnz
  5639  01E7  29C5               	goto	l3448
  5640  01E8  3A07               	xorlw	7	; case 4
  5641  01E9  1903               	skipnz
  5642  01EA  29C9               	goto	l3452
  5643  01EB  29C9               	goto	l3452
  5644  01EC                     l550:
  5645  01EC  0008               	return
  5646  01ED                     __end_of_I2C1_DO_RX:
  5647                           
  5648                           	psect	text33
  5649  0150                     __ptext33:	
  5650 ;; *************** function _I2C1_DO_TX *****************
  5651 ;; Defined at:
  5652 ;;		line 354 in file "mcc_generated_files/i2c1_master.c"
  5653 ;; Parameters:    Size  Location     Type
  5654 ;;		None
  5655 ;; Auto vars:     Size  Location     Type
  5656 ;;		None
  5657 ;; Return value:  Size  Location     Type
  5658 ;;                  1    wreg      enum E3009
  5659 ;; Registers used:
  5660 ;;		wreg, fsr0l, fsr0h, fsr1l, fsr1h, status,2, status,0, pclath, cstack
  5661 ;; Tracked objects:
  5662 ;;		On entry : 0/0
  5663 ;;		On exit  : 0/0
  5664 ;;		Unchanged: 0/0
  5665 ;; Data sizes:     COMMON   BANK0   BANK1   BANK2   BANK3   BANK4   BANK5   BANK6   BANK7   BANK8   BANK9  BANK10  BANK1
      +1  BANK12
  5666 ;;      Params:         0       0       0       0       0       0       0       0       0       0       0       0       
      +0       0
  5667 ;;      Locals:         0       0       0       0       0       0       0       0       0       0       0       0       
      +0       0
  5668 ;;      Temps:          0       3       0       0       0       0       0       0       0       0       0       0       
      +0       0
  5669 ;;      Totals:         0       3       0       0       0       0       0       0       0       0       0       0       
      +0       0
  5670 ;;Total ram usage:        3 bytes
  5671 ;; Hardware stack levels used: 1
  5672 ;; Hardware stack levels required when called: 8
  5673 ;; This function calls:
  5674 ;;		Absolute function
  5675 ;;		_I2C1_CallbackReturnReset
  5676 ;;		_I2C1_CallbackReturnStop
  5677 ;;		_I2C1_DO_SEND_RESTART_READ
  5678 ;;		_I2C1_DO_SEND_RESTART_WRITE
  5679 ;;		_I2C1_DO_SEND_STOP
  5680 ;;		_I2C1_MasterIsNack
  5681 ;;		_I2C1_MasterSendTxData
  5682 ;;		_rd1RegCompleteHandler
  5683 ;;		_rd1RegCompleteHandler@i2c_simple_master$F1268
  5684 ;;		_rd2RegCompleteHandler
  5685 ;;		_rd2RegCompleteHandler@i2c_simple_master$F1276
  5686 ;;		_rdBlkRegCompleteHandler
  5687 ;;		_rdBlkRegCompleteHandler@i2c_simple_master$F1288
  5688 ;;		_wr1RegCompleteHandler
  5689 ;;		_wr1RegCompleteHandler@i2c_simple_master$F1258
  5690 ;;		_wr2RegCompleteHandler
  5691 ;;		_wr2RegCompleteHandler@i2c_simple_master$F1282
  5692 ;; This function is called by:
  5693 ;;		_I2C1_MasterFsm
  5694 ;; This function uses a non-reentrant model
  5695 ;;
  5696                           
  5697                           
  5698                           ;psect for function _I2C1_DO_TX
  5699  0150                     _I2C1_DO_TX:
  5700  0150                     l3400:	
  5701                           ;incstack = 0
  5702                           ; Regs used in _I2C1_DO_TX: [wreg-fsr1h+status,2+status,0+pclath+cstack]
  5703                           
  5704                           
  5705                           ;mcc_generated_files/i2c1_master.c: 356:     if(I2C1_MasterIsNack())
  5706  0150  3186  2641  3181   	fcall	_I2C1_MasterIsNack
  5707  0153  3A00               	xorlw	0
  5708  0154  1903               	skipnz
  5709  0155  2957               	goto	u1291
  5710  0156  2958               	goto	u1290
  5711  0157                     u1291:
  5712  0157  2989               	goto	l533
  5713  0158                     u1290:
  5714  0158  2965               	goto	l3418
  5715  0159                     l3404:
  5716                           
  5717                           ;mcc_generated_files/i2c1_master.c: 361:                 return I2C1_DO_SEND_RESTART_REA
      +                          D();
  5718  0159  3186  2674  3181   	fcall	_I2C1_DO_SEND_RESTART_READ
  5719  015C  29A5               	goto	l536
  5720  015D                     l3408:
  5721                           
  5722                           ;mcc_generated_files/i2c1_master.c: 363:                   return I2C1_DO_SEND_RESTART_W
      +                          RITE();
  5723  015D  3186  266F  3181   	fcall	_I2C1_DO_SEND_RESTART_WRITE
  5724  0160  29A5               	goto	l536
  5725  0161                     l3412:
  5726                           
  5727                           ;mcc_generated_files/i2c1_master.c: 367:                 return I2C1_DO_SEND_STOP();
  5728  0161  3186  2665  3181   	fcall	_I2C1_DO_SEND_STOP
  5729  0164  29A5               	goto	l536
  5730  0165                     l3418:
  5731  0165  0020               	movlb	0	; select bank0
  5732  0166  082F               	movf	low ((_I2C1_Status| 0+15)),w
  5733  0167  00C3               	movwf	??_I2C1_DO_TX
  5734  0168  0843               	movf	??_I2C1_DO_TX,w
  5735  0169  00C2               	movwf	rdBlkRegCompleteHandler@i2c_simple_master$F1288@p
  5736  016A  3006               	movlw	6
  5737  016B  3E20               	addlw	(low (_I2C1_Status| 0))& (0+255)
  5738  016C  0086               	movwf	6
  5739  016D  0187               	clrf	7
  5740  016E  3F41               	moviw [1]fsr1
  5741  016F  008A               	movwf	10
  5742  0170  3F40               	moviw [0]fsr1
  5743  0171  000A               	callw
  5744  0172  3181               	pagesel	$
  5745  0173  0020               	movlb	0	; select bank0
  5746  0174  00C4               	movwf	??_I2C1_DO_TX+1
  5747  0175  01C5               	clrf	??_I2C1_DO_TX+2
  5748                           
  5749                           ; Switch on 2 bytes has been partitioned into a top level switch of size 1, and 1 sub-sw
      +                          itches
  5750                           ; Switch size 1, requested type "simple"
  5751                           ; Number of cases is 1, Range of values is 0 to 0
  5752                           ; switch strategies available:
  5753                           ; Name         Instructions Cycles
  5754                           ; simple_byte            4     3 (average)
  5755                           ; direct_byte            8     6 (fixed)
  5756                           ; jumptable            260     6 (fixed)
  5757                           ;	Chosen strategy is simple_byte
  5758  0176  0845               	movf	??_I2C1_DO_TX+2,w
  5759  0177  3A00               	xorlw	0	; case 0
  5760  0178  1903               	skipnz
  5761  0179  297B               	goto	l3914
  5762  017A  2961               	goto	l3412
  5763  017B                     l3914:
  5764                           
  5765                           ; Switch size 1, requested type "simple"
  5766                           ; Number of cases is 4, Range of values is 1 to 4
  5767                           ; switch strategies available:
  5768                           ; Name         Instructions Cycles
  5769                           ; simple_byte           13     7 (average)
  5770                           ; direct_byte           17     9 (fixed)
  5771                           ; jumptable            263     9 (fixed)
  5772                           ;	Chosen strategy is simple_byte
  5773  017B  0844               	movf	??_I2C1_DO_TX+1,w
  5774  017C  3A01               	xorlw	1	; case 1
  5775  017D  1903               	skipnz
  5776  017E  2961               	goto	l3412
  5777  017F  3A03               	xorlw	3	; case 2
  5778  0180  1903               	skipnz
  5779  0181  2959               	goto	l3404
  5780  0182  3A01               	xorlw	1	; case 3
  5781  0183  1903               	skipnz
  5782  0184  295D               	goto	l3408
  5783  0185  3A07               	xorlw	7	; case 4
  5784  0186  1903               	skipnz
  5785  0187  2961               	goto	l3412
  5786  0188  2961               	goto	l3412
  5787  0189                     l533:	
  5788                           ;mcc_generated_files/i2c1_master.c: 370:     else
  5789                           
  5790                           
  5791                           ;mcc_generated_files/i2c1_master.c: 371:     {;mcc_generated_files/i2c1_master.c: 372:  
      +                                 I2C1_Status.addressNackCheck = 0;
  5792  0189  0020               	movlb	0	; select bank0
  5793  018A  103C               	bcf	_I2C1_Status+28,0
  5794  018B                     l3420:
  5795                           
  5796                           ;mcc_generated_files/i2c1_master.c: 373:         I2C1_MasterSendTxData(*I2C1_Status.data
      +                          _ptr++);
  5797  018B  3017               	movlw	23
  5798  018C  3E20               	addlw	(low (_I2C1_Status| 0))& (0+255)
  5799  018D  0086               	movwf	6
  5800  018E  0187               	clrf	7
  5801  018F  3F40               	moviw [0]fsr1
  5802  0190  0084               	movwf	4
  5803  0191  0185               	clrf	5
  5804  0192  0A81               	incf	1,f
  5805  0193  0800               	movf	0,w
  5806  0194  3186  267E  3181   	fcall	_I2C1_MasterSendTxData
  5807  0197                     l3422:
  5808                           
  5809                           ;mcc_generated_files/i2c1_master.c: 374:         return (--I2C1_Status.data_length)?I2C1
      +                          _TX:I2C1_TX_EMPTY;
  5810  0197  3001               	movlw	1
  5811  0198  0020               	movlb	0	; select bank0
  5812  0199  02B8               	subwf	_I2C1_Status+24,f
  5813  019A  3000               	movlw	0
  5814  019B  3BB9               	subwfb	_I2C1_Status+25,f
  5815  019C  0838               	movf	_I2C1_Status+24,w
  5816  019D  0439               	iorwf	_I2C1_Status+25,w
  5817  019E  1D03               	btfss	3,2
  5818  019F  29A1               	goto	u1301
  5819  01A0  29A2               	goto	u1300
  5820  01A1                     u1301:
  5821  01A1  29A4               	goto	l3426
  5822  01A2                     u1300:
  5823  01A2                     l3424:
  5824  01A2  3006               	movlw	6
  5825  01A3  29A5               	goto	l536
  5826  01A4                     l3426:
  5827  01A4  3003               	movlw	3
  5828  01A5                     l536:
  5829  01A5  0008               	return
  5830  01A6                     __end_of_I2C1_DO_TX:
  5831                           
  5832                           	psect	text34
  5833  0626                     __ptext34:	
  5834 ;; *************** function _I2C1_DO_SEND_ADR_WRITE *****************
  5835 ;; Defined at:
  5836 ;;		line 347 in file "mcc_generated_files/i2c1_master.c"
  5837 ;; Parameters:    Size  Location     Type
  5838 ;;		None
  5839 ;; Auto vars:     Size  Location     Type
  5840 ;;		None
  5841 ;; Return value:  Size  Location     Type
  5842 ;;                  1    wreg      enum E3009
  5843 ;; Registers used:
  5844 ;;		wreg, status,2, status,0, pclath, cstack
  5845 ;; Tracked objects:
  5846 ;;		On entry : 0/0
  5847 ;;		On exit  : 0/0
  5848 ;;		Unchanged: 0/0
  5849 ;; Data sizes:     COMMON   BANK0   BANK1   BANK2   BANK3   BANK4   BANK5   BANK6   BANK7   BANK8   BANK9  BANK10  BANK1
      +1  BANK12
  5850 ;;      Params:         0       0       0       0       0       0       0       0       0       0       0       0       
      +0       0
  5851 ;;      Locals:         0       0       0       0       0       0       0       0       0       0       0       0       
      +0       0
  5852 ;;      Temps:          0       0       0       0       0       0       0       0       0       0       0       0       
      +0       0
  5853 ;;      Totals:         0       0       0       0       0       0       0       0       0       0       0       0       
      +0       0
  5854 ;;Total ram usage:        0 bytes
  5855 ;; Hardware stack levels used: 1
  5856 ;; Hardware stack levels required when called: 6
  5857 ;; This function calls:
  5858 ;;		_I2C1_MasterSendTxData
  5859 ;; This function is called by:
  5860 ;;		_I2C1_MasterFsm
  5861 ;; This function uses a non-reentrant model
  5862 ;;
  5863                           
  5864                           
  5865                           ;psect for function _I2C1_DO_SEND_ADR_WRITE
  5866  0626                     _I2C1_DO_SEND_ADR_WRITE:
  5867  0626                     l2560:	
  5868                           ;incstack = 0
  5869                           ; Regs used in _I2C1_DO_SEND_ADR_WRITE: [wreg+status,2+status,0+pclath+cstack]
  5870                           
  5871                           
  5872                           ;mcc_generated_files/i2c1_master.c: 349:     I2C1_Status.addressNackCheck = 1;
  5873  0626  0020               	movlb	0	; select bank0
  5874  0627  143C               	bsf	_I2C1_Status+28,0
  5875  0628                     l2562:
  5876                           
  5877                           ;mcc_generated_files/i2c1_master.c: 350:     I2C1_MasterSendTxData((uint8_t) (I2C1_Statu
      +                          s.address << 1));
  5878  0628  3536               	lslf	_I2C1_Status+22,w
  5879  0629  3186  267E  3186   	fcall	_I2C1_MasterSendTxData
  5880  062C                     l2564:
  5881                           
  5882                           ;mcc_generated_files/i2c1_master.c: 351:     return I2C1_TX;
  5883  062C  3003               	movlw	3
  5884  062D                     l530:
  5885  062D  0008               	return
  5886  062E                     __end_of_I2C1_DO_SEND_ADR_WRITE:
  5887                           
  5888                           	psect	text35
  5889  060C                     __ptext35:	
  5890 ;; *************** function _I2C1_DO_SEND_ADR_READ *****************
  5891 ;; Defined at:
  5892 ;;		line 340 in file "mcc_generated_files/i2c1_master.c"
  5893 ;; Parameters:    Size  Location     Type
  5894 ;;		None
  5895 ;; Auto vars:     Size  Location     Type
  5896 ;;		None
  5897 ;; Return value:  Size  Location     Type
  5898 ;;                  1    wreg      enum E3009
  5899 ;; Registers used:
  5900 ;;		wreg, status,2, status,0, pclath, cstack
  5901 ;; Tracked objects:
  5902 ;;		On entry : 0/0
  5903 ;;		On exit  : 0/0
  5904 ;;		Unchanged: 0/0
  5905 ;; Data sizes:     COMMON   BANK0   BANK1   BANK2   BANK3   BANK4   BANK5   BANK6   BANK7   BANK8   BANK9  BANK10  BANK1
      +1  BANK12
  5906 ;;      Params:         0       0       0       0       0       0       0       0       0       0       0       0       
      +0       0
  5907 ;;      Locals:         0       0       0       0       0       0       0       0       0       0       0       0       
      +0       0
  5908 ;;      Temps:          0       0       0       0       0       0       0       0       0       0       0       0       
      +0       0
  5909 ;;      Totals:         0       0       0       0       0       0       0       0       0       0       0       0       
      +0       0
  5910 ;;Total ram usage:        0 bytes
  5911 ;; Hardware stack levels used: 1
  5912 ;; Hardware stack levels required when called: 6
  5913 ;; This function calls:
  5914 ;;		_I2C1_MasterSendTxData
  5915 ;; This function is called by:
  5916 ;;		_I2C1_MasterFsm
  5917 ;; This function uses a non-reentrant model
  5918 ;;
  5919                           
  5920                           
  5921                           ;psect for function _I2C1_DO_SEND_ADR_READ
  5922  060C                     _I2C1_DO_SEND_ADR_READ:
  5923  060C                     l2552:	
  5924                           ;incstack = 0
  5925                           ; Regs used in _I2C1_DO_SEND_ADR_READ: [wreg+status,2+status,0+pclath+cstack]
  5926                           
  5927                           
  5928                           ;mcc_generated_files/i2c1_master.c: 342:     I2C1_Status.addressNackCheck = 1;
  5929  060C  0020               	movlb	0	; select bank0
  5930  060D  143C               	bsf	_I2C1_Status+28,0
  5931  060E                     l2554:
  5932                           
  5933                           ;mcc_generated_files/i2c1_master.c: 343:     I2C1_MasterSendTxData((uint8_t) (I2C1_Statu
      +                          s.address << 1 | 1));
  5934  060E  1403               	setc
  5935  060F  0D36               	rlf	_I2C1_Status+22,w
  5936  0610  3186  267E  3186   	fcall	_I2C1_MasterSendTxData
  5937  0613                     l2556:
  5938                           
  5939                           ;mcc_generated_files/i2c1_master.c: 344:     return I2C1_RCEN;
  5940  0613  3005               	movlw	5
  5941  0614                     l527:
  5942  0614  0008               	return
  5943  0615                     __end_of_I2C1_DO_SEND_ADR_READ:
  5944                           
  5945                           	psect	text36
  5946  0679                     __ptext36:	
  5947 ;; *************** function _I2C1_DO_IDLE *****************
  5948 ;; Defined at:
  5949 ;;		line 333 in file "mcc_generated_files/i2c1_master.c"
  5950 ;; Parameters:    Size  Location     Type
  5951 ;;		None
  5952 ;; Auto vars:     Size  Location     Type
  5953 ;;		None
  5954 ;; Return value:  Size  Location     Type
  5955 ;;                  1    wreg      enum E3009
  5956 ;; Registers used:
  5957 ;;		wreg, status,2
  5958 ;; Tracked objects:
  5959 ;;		On entry : 0/0
  5960 ;;		On exit  : 0/0
  5961 ;;		Unchanged: 0/0
  5962 ;; Data sizes:     COMMON   BANK0   BANK1   BANK2   BANK3   BANK4   BANK5   BANK6   BANK7   BANK8   BANK9  BANK10  BANK1
      +1  BANK12
  5963 ;;      Params:         0       0       0       0       0       0       0       0       0       0       0       0       
      +0       0
  5964 ;;      Locals:         0       0       0       0       0       0       0       0       0       0       0       0       
      +0       0
  5965 ;;      Temps:          0       0       0       0       0       0       0       0       0       0       0       0       
      +0       0
  5966 ;;      Totals:         0       0       0       0       0       0       0       0       0       0       0       0       
      +0       0
  5967 ;;Total ram usage:        0 bytes
  5968 ;; Hardware stack levels used: 1
  5969 ;; Hardware stack levels required when called: 5
  5970 ;; This function calls:
  5971 ;;		Nothing
  5972 ;; This function is called by:
  5973 ;;		_I2C1_MasterFsm
  5974 ;; This function uses a non-reentrant model
  5975 ;;
  5976                           
  5977                           
  5978                           ;psect for function _I2C1_DO_IDLE
  5979  0679                     _I2C1_DO_IDLE:
  5980  0679                     l2544:	
  5981                           ;incstack = 0
  5982                           ; Regs used in _I2C1_DO_IDLE: [wreg+status,2]
  5983                           
  5984                           
  5985                           ;mcc_generated_files/i2c1_master.c: 335:     I2C1_Status.busy = 0;
  5986  0679  0020               	movlb	0	; select bank0
  5987  067A  10BC               	bcf	_I2C1_Status+28,1
  5988  067B                     l2546:
  5989                           
  5990                           ;mcc_generated_files/i2c1_master.c: 336:     I2C1_Status.error = I2C1_NOERR;
  5991  067B  01BB               	clrf	_I2C1_Status+27
  5992  067C                     l2548:
  5993                           
  5994                           ;mcc_generated_files/i2c1_master.c: 337:     return I2C1_RESET;
  5995  067C  300E               	movlw	14
  5996  067D                     l524:
  5997  067D  0008               	return
  5998  067E                     __end_of_I2C1_DO_IDLE:
  5999                           
  6000                           	psect	text37
  6001  0292                     __ptext37:	
  6002 ;; *************** function _I2C1_DO_TX_EMPTY *****************
  6003 ;; Defined at:
  6004 ;;		line 409 in file "mcc_generated_files/i2c1_master.c"
  6005 ;; Parameters:    Size  Location     Type
  6006 ;;		None
  6007 ;; Auto vars:     Size  Location     Type
  6008 ;;		None
  6009 ;; Return value:  Size  Location     Type
  6010 ;;                  1    wreg      enum E3009
  6011 ;; Registers used:
  6012 ;;		wreg, fsr0l, fsr0h, fsr1l, fsr1h, status,2, status,0, pclath, cstack
  6013 ;; Tracked objects:
  6014 ;;		On entry : 0/0
  6015 ;;		On exit  : 0/0
  6016 ;;		Unchanged: 0/0
  6017 ;; Data sizes:     COMMON   BANK0   BANK1   BANK2   BANK3   BANK4   BANK5   BANK6   BANK7   BANK8   BANK9  BANK10  BANK1
      +1  BANK12
  6018 ;;      Params:         0       0       0       0       0       0       0       0       0       0       0       0       
      +0       0
  6019 ;;      Locals:         0       0       0       0       0       0       0       0       0       0       0       0       
      +0       0
  6020 ;;      Temps:          0       3       0       0       0       0       0       0       0       0       0       0       
      +0       0
  6021 ;;      Totals:         0       3       0       0       0       0       0       0       0       0       0       0       
      +0       0
  6022 ;;Total ram usage:        3 bytes
  6023 ;; Hardware stack levels used: 1
  6024 ;; Hardware stack levels required when called: 8
  6025 ;; This function calls:
  6026 ;;		Absolute function
  6027 ;;		_I2C1_CallbackReturnReset
  6028 ;;		_I2C1_CallbackReturnStop
  6029 ;;		_I2C1_DO_SEND_RESTART
  6030 ;;		_I2C1_DO_SEND_STOP
  6031 ;;		_I2C1_MasterSetIrq
  6032 ;;		_rd1RegCompleteHandler
  6033 ;;		_rd1RegCompleteHandler@i2c_simple_master$F1268
  6034 ;;		_rd2RegCompleteHandler
  6035 ;;		_rd2RegCompleteHandler@i2c_simple_master$F1276
  6036 ;;		_rdBlkRegCompleteHandler
  6037 ;;		_rdBlkRegCompleteHandler@i2c_simple_master$F1288
  6038 ;;		_wr1RegCompleteHandler
  6039 ;;		_wr1RegCompleteHandler@i2c_simple_master$F1258
  6040 ;;		_wr2RegCompleteHandler
  6041 ;;		_wr2RegCompleteHandler@i2c_simple_master$F1282
  6042 ;; This function is called by:
  6043 ;;		_I2C1_MasterFsm
  6044 ;; This function uses a non-reentrant model
  6045 ;;
  6046                           
  6047                           
  6048                           ;psect for function _I2C1_DO_TX_EMPTY
  6049  0292                     _I2C1_DO_TX_EMPTY:
  6050  0292                     l3464:	
  6051                           ;incstack = 0
  6052                           ; Regs used in _I2C1_DO_TX_EMPTY: [wreg-fsr1h+status,2+status,0+pclath+cstack]
  6053                           
  6054                           
  6055                           ;mcc_generated_files/i2c1_master.c: 411:     I2C1_Status.bufferFree = 1;
  6056  0292  0020               	movlb	0	; select bank0
  6057  0293  15BC               	bsf	_I2C1_Status+28,3
  6058                           
  6059                           ;mcc_generated_files/i2c1_master.c: 412:     switch(I2C1_Status.callbackTable[I2C1_DATA_
      +                          COMPLETE](I2C1_Status.callbackPayload[I2C1_DATA_COMPLETE]))
  6060  0294  2AA2               	goto	l3482
  6061  0295                     l3466:
  6062                           
  6063                           ;mcc_generated_files/i2c1_master.c: 416:             return I2C1_DO_SEND_RESTART();
  6064  0295  3186  266A  3182   	fcall	_I2C1_DO_SEND_RESTART
  6065  0298  2AC1               	goto	l567
  6066  0299                     l3470:
  6067                           
  6068                           ;mcc_generated_files/i2c1_master.c: 418:             I2C1_MasterSetIrq();
  6069  0299  3186  268F  3182   	fcall	_I2C1_MasterSetIrq
  6070  029C                     l3472:
  6071                           
  6072                           ;mcc_generated_files/i2c1_master.c: 419:             return I2C1_TX;
  6073  029C  3003               	movlw	3
  6074  029D  2AC1               	goto	l567
  6075  029E                     l3476:
  6076                           
  6077                           ;mcc_generated_files/i2c1_master.c: 422:             return I2C1_DO_SEND_STOP();
  6078  029E  3186  2665  3182   	fcall	_I2C1_DO_SEND_STOP
  6079  02A1  2AC1               	goto	l567
  6080  02A2                     l3482:
  6081  02A2  082C               	movf	low ((_I2C1_Status| 0+12)),w
  6082  02A3  00C3               	movwf	??_I2C1_DO_TX_EMPTY
  6083  02A4  0843               	movf	??_I2C1_DO_TX_EMPTY,w
  6084  02A5  00C2               	movwf	rdBlkRegCompleteHandler@i2c_simple_master$F1288@p
  6085  02A6  0821               	movf	_I2C1_Status+1,w
  6086  02A7  008A               	movwf	10
  6087  02A8  0820               	movf	_I2C1_Status,w
  6088  02A9  000A               	callw
  6089  02AA  3182               	pagesel	$
  6090  02AB  0020               	movlb	0	; select bank0
  6091  02AC  00C4               	movwf	??_I2C1_DO_TX_EMPTY+1
  6092  02AD  01C5               	clrf	??_I2C1_DO_TX_EMPTY+2
  6093                           
  6094                           ; Switch on 2 bytes has been partitioned into a top level switch of size 1, and 1 sub-sw
      +                          itches
  6095                           ; Switch size 1, requested type "simple"
  6096                           ; Number of cases is 1, Range of values is 0 to 0
  6097                           ; switch strategies available:
  6098                           ; Name         Instructions Cycles
  6099                           ; simple_byte            4     3 (average)
  6100                           ; direct_byte            8     6 (fixed)
  6101                           ; jumptable            260     6 (fixed)
  6102                           ;	Chosen strategy is simple_byte
  6103  02AE  0845               	movf	??_I2C1_DO_TX_EMPTY+2,w
  6104  02AF  3A00               	xorlw	0	; case 0
  6105  02B0  1903               	skipnz
  6106  02B1  2AB3               	goto	l3916
  6107  02B2  2A9E               	goto	l3476
  6108  02B3                     l3916:
  6109                           
  6110                           ; Switch size 1, requested type "simple"
  6111                           ; Number of cases is 4, Range of values is 1 to 4
  6112                           ; switch strategies available:
  6113                           ; Name         Instructions Cycles
  6114                           ; simple_byte           13     7 (average)
  6115                           ; direct_byte           17     9 (fixed)
  6116                           ; jumptable            263     9 (fixed)
  6117                           ;	Chosen strategy is simple_byte
  6118  02B3  0844               	movf	??_I2C1_DO_TX_EMPTY+1,w
  6119  02B4  3A01               	xorlw	1	; case 1
  6120  02B5  1903               	skipnz
  6121  02B6  2A9E               	goto	l3476
  6122  02B7  3A03               	xorlw	3	; case 2
  6123  02B8  1903               	skipnz
  6124  02B9  2A95               	goto	l3466
  6125  02BA  3A01               	xorlw	1	; case 3
  6126  02BB  1903               	skipnz
  6127  02BC  2A95               	goto	l3466
  6128  02BD  3A07               	xorlw	7	; case 4
  6129  02BE  1903               	skipnz
  6130  02BF  2A99               	goto	l3470
  6131  02C0  2A9E               	goto	l3476
  6132  02C1                     l567:
  6133  02C1  0008               	return
  6134  02C2                     __end_of_I2C1_DO_TX_EMPTY:
  6135                           
  6136                           	psect	text38
  6137  068F                     __ptext38:	
  6138 ;; *************** function _I2C1_MasterSetIrq *****************
  6139 ;; Defined at:
  6140 ;;		line 645 in file "mcc_generated_files/i2c1_master.c"
  6141 ;; Parameters:    Size  Location     Type
  6142 ;;		None
  6143 ;; Auto vars:     Size  Location     Type
  6144 ;;		None
  6145 ;; Return value:  Size  Location     Type
  6146 ;;                  1    wreg      void 
  6147 ;; Registers used:
  6148 ;;		None
  6149 ;; Tracked objects:
  6150 ;;		On entry : 0/0
  6151 ;;		On exit  : 0/0
  6152 ;;		Unchanged: 0/0
  6153 ;; Data sizes:     COMMON   BANK0   BANK1   BANK2   BANK3   BANK4   BANK5   BANK6   BANK7   BANK8   BANK9  BANK10  BANK1
      +1  BANK12
  6154 ;;      Params:         0       0       0       0       0       0       0       0       0       0       0       0       
      +0       0
  6155 ;;      Locals:         0       0       0       0       0       0       0       0       0       0       0       0       
      +0       0
  6156 ;;      Temps:          0       0       0       0       0       0       0       0       0       0       0       0       
      +0       0
  6157 ;;      Totals:         0       0       0       0       0       0       0       0       0       0       0       0       
      +0       0
  6158 ;;Total ram usage:        0 bytes
  6159 ;; Hardware stack levels used: 1
  6160 ;; Hardware stack levels required when called: 5
  6161 ;; This function calls:
  6162 ;;		Nothing
  6163 ;; This function is called by:
  6164 ;;		_I2C1_DO_TX_EMPTY
  6165 ;; This function uses a non-reentrant model
  6166 ;;
  6167                           
  6168                           
  6169                           ;psect for function _I2C1_MasterSetIrq
  6170  068F                     _I2C1_MasterSetIrq:
  6171  068F                     l2494:	
  6172                           ;incstack = 0
  6173                           ; Regs used in _I2C1_MasterSetIrq: []
  6174                           
  6175                           
  6176                           ;mcc_generated_files/i2c1_master.c: 647:     PIR1bits.SSP1IF = 1;
  6177  068F  0020               	movlb	0	; select bank0
  6178  0690  1591               	bsf	17,3	;volatile
  6179  0691                     l687:
  6180  0691  0008               	return
  6181  0692                     __end_of_I2C1_MasterSetIrq:
  6182                           
  6183                           	psect	text39
  6184  0641                     __ptext39:	
  6185 ;; *************** function _I2C1_MasterIsNack *****************
  6186 ;; Defined at:
  6187 ;;		line 598 in file "mcc_generated_files/i2c1_master.c"
  6188 ;; Parameters:    Size  Location     Type
  6189 ;;		None
  6190 ;; Auto vars:     Size  Location     Type
  6191 ;;		None
  6192 ;; Return value:  Size  Location     Type
  6193 ;;                  1    wreg      _Bool 
  6194 ;; Registers used:
  6195 ;;		wreg, status,2, status,0
  6196 ;; Tracked objects:
  6197 ;;		On entry : 0/0
  6198 ;;		On exit  : 0/0
  6199 ;;		Unchanged: 0/0
  6200 ;; Data sizes:     COMMON   BANK0   BANK1   BANK2   BANK3   BANK4   BANK5   BANK6   BANK7   BANK8   BANK9  BANK10  BANK1
      +1  BANK12
  6201 ;;      Params:         0       0       0       0       0       0       0       0       0       0       0       0       
      +0       0
  6202 ;;      Locals:         0       0       0       0       0       0       0       0       0       0       0       0       
      +0       0
  6203 ;;      Temps:          0       0       0       0       0       0       0       0       0       0       0       0       
      +0       0
  6204 ;;      Totals:         0       0       0       0       0       0       0       0       0       0       0       0       
      +0       0
  6205 ;;Total ram usage:        0 bytes
  6206 ;; Hardware stack levels used: 1
  6207 ;; Hardware stack levels required when called: 5
  6208 ;; This function calls:
  6209 ;;		Nothing
  6210 ;; This function is called by:
  6211 ;;		_I2C1_MasterFsm
  6212 ;;		_I2C1_DO_TX
  6213 ;; This function uses a non-reentrant model
  6214 ;;
  6215                           
  6216                           
  6217                           ;psect for function _I2C1_MasterIsNack
  6218  0641                     _I2C1_MasterIsNack:
  6219  0641                     l2444:	
  6220                           ;incstack = 0
  6221                           ; Regs used in _I2C1_MasterIsNack: [wreg+status,2+status,0]
  6222                           
  6223                           
  6224                           ;mcc_generated_files/i2c1_master.c: 600:     return SSP1CON2bits.ACKSTAT;
  6225  0641  0024               	movlb	4	; select bank4
  6226  0642  0E16               	swapf	22,w	;volatile
  6227  0643  0C89               	rrf	9,f
  6228  0644  0C89               	rrf	9,f
  6229  0645  3901               	andlw	1
  6230  0646                     l660:
  6231  0646  0008               	return
  6232  0647                     __end_of_I2C1_MasterIsNack:
  6233                           
  6234                           	psect	text40
  6235  067E                     __ptext40:	
  6236 ;; *************** function _I2C1_MasterSendTxData *****************
  6237 ;; Defined at:
  6238 ;;		line 568 in file "mcc_generated_files/i2c1_master.c"
  6239 ;; Parameters:    Size  Location     Type
  6240 ;;  data            1    wreg     unsigned char 
  6241 ;; Auto vars:     Size  Location     Type
  6242 ;;  data            1    4[COMMON] unsigned char 
  6243 ;; Return value:  Size  Location     Type
  6244 ;;                  1    wreg      void 
  6245 ;; Registers used:
  6246 ;;		wreg
  6247 ;; Tracked objects:
  6248 ;;		On entry : 0/0
  6249 ;;		On exit  : 0/0
  6250 ;;		Unchanged: 0/0
  6251 ;; Data sizes:     COMMON   BANK0   BANK1   BANK2   BANK3   BANK4   BANK5   BANK6   BANK7   BANK8   BANK9  BANK10  BANK1
      +1  BANK12
  6252 ;;      Params:         0       0       0       0       0       0       0       0       0       0       0       0       
      +0       0
  6253 ;;      Locals:         1       0       0       0       0       0       0       0       0       0       0       0       
      +0       0
  6254 ;;      Temps:          0       0       0       0       0       0       0       0       0       0       0       0       
      +0       0
  6255 ;;      Totals:         1       0       0       0       0       0       0       0       0       0       0       0       
      +0       0
  6256 ;;Total ram usage:        1 bytes
  6257 ;; Hardware stack levels used: 1
  6258 ;; Hardware stack levels required when called: 5
  6259 ;; This function calls:
  6260 ;;		Nothing
  6261 ;; This function is called by:
  6262 ;;		_I2C1_DO_SEND_ADR_READ
  6263 ;;		_I2C1_DO_SEND_ADR_WRITE
  6264 ;;		_I2C1_DO_TX
  6265 ;; This function uses a non-reentrant model
  6266 ;;
  6267                           
  6268                           
  6269                           ;psect for function _I2C1_MasterSendTxData
  6270  067E                     _I2C1_MasterSendTxData:
  6271                           
  6272                           ;incstack = 0
  6273                           ; Regs used in _I2C1_MasterSendTxData: [wreg]
  6274                           ;I2C1_MasterSendTxData@data stored from wreg
  6275  067E  00F4               	movwf	I2C1_MasterSendTxData@data
  6276  067F                     l2448:
  6277                           
  6278                           ;mcc_generated_files/i2c1_master.c: 568: static __attribute__((inline)) void I2C1_Master
      +                          SendTxData(uint8_t data);mcc_generated_files/i2c1_master.c: 569: {;mcc_generated_files/i
      +                          2c1_master.c: 570:     SSP1BUF = data;
  6279  067F  0874               	movf	I2C1_MasterSendTxData@data,w
  6280  0680  0024               	movlb	4	; select bank4
  6281  0681  0091               	movwf	17	;volatile
  6282  0682                     l642:
  6283  0682  0008               	return
  6284  0683                     __end_of_I2C1_MasterSendTxData:
  6285                           
  6286                           	psect	text41
  6287  0687                     __ptext41:	
  6288 ;; *************** function _I2C1_MasterSendAck *****************
  6289 ;; Defined at:
  6290 ;;		line 603 in file "mcc_generated_files/i2c1_master.c"
  6291 ;; Parameters:    Size  Location     Type
  6292 ;;		None
  6293 ;; Auto vars:     Size  Location     Type
  6294 ;;		None
  6295 ;; Return value:  Size  Location     Type
  6296 ;;                  1    wreg      void 
  6297 ;; Registers used:
  6298 ;;		None
  6299 ;; Tracked objects:
  6300 ;;		On entry : 0/0
  6301 ;;		On exit  : 0/0
  6302 ;;		Unchanged: 0/0
  6303 ;; Data sizes:     COMMON   BANK0   BANK1   BANK2   BANK3   BANK4   BANK5   BANK6   BANK7   BANK8   BANK9  BANK10  BANK1
      +1  BANK12
  6304 ;;      Params:         0       0       0       0       0       0       0       0       0       0       0       0       
      +0       0
  6305 ;;      Locals:         0       0       0       0       0       0       0       0       0       0       0       0       
      +0       0
  6306 ;;      Temps:          0       0       0       0       0       0       0       0       0       0       0       0       
      +0       0
  6307 ;;      Totals:         0       0       0       0       0       0       0       0       0       0       0       0       
      +0       0
  6308 ;;Total ram usage:        0 bytes
  6309 ;; Hardware stack levels used: 1
  6310 ;; Hardware stack levels required when called: 5
  6311 ;; This function calls:
  6312 ;;		Nothing
  6313 ;; This function is called by:
  6314 ;;		_I2C1_DO_RX
  6315 ;;		_I2C1_DO_RX_ACK
  6316 ;; This function uses a non-reentrant model
  6317 ;;
  6318                           
  6319                           
  6320                           ;psect for function _I2C1_MasterSendAck
  6321  0687                     _I2C1_MasterSendAck:
  6322  0687                     l2472:	
  6323                           ;incstack = 0
  6324                           ; Regs used in _I2C1_MasterSendAck: []
  6325                           
  6326                           
  6327                           ;mcc_generated_files/i2c1_master.c: 605:     SSP1CON2bits.ACKDT = 0;
  6328  0687  0024               	movlb	4	; select bank4
  6329  0688  1296               	bcf	22,5	;volatile
  6330                           
  6331                           ;mcc_generated_files/i2c1_master.c: 606:     SSP1CON2bits.ACKEN = 1;
  6332  0689  1616               	bsf	22,4	;volatile
  6333  068A                     l663:
  6334  068A  0008               	return
  6335  068B                     __end_of_I2C1_MasterSendAck:
  6336                           
  6337                           	psect	text42
  6338  0692                     __ptext42:	
  6339 ;; *************** function _I2C1_MasterGetRxData *****************
  6340 ;; Defined at:
  6341 ;;		line 563 in file "mcc_generated_files/i2c1_master.c"
  6342 ;; Parameters:    Size  Location     Type
  6343 ;;		None
  6344 ;; Auto vars:     Size  Location     Type
  6345 ;;		None
  6346 ;; Return value:  Size  Location     Type
  6347 ;;                  1    wreg      unsigned char 
  6348 ;; Registers used:
  6349 ;;		wreg
  6350 ;; Tracked objects:
  6351 ;;		On entry : 0/0
  6352 ;;		On exit  : 0/0
  6353 ;;		Unchanged: 0/0
  6354 ;; Data sizes:     COMMON   BANK0   BANK1   BANK2   BANK3   BANK4   BANK5   BANK6   BANK7   BANK8   BANK9  BANK10  BANK1
      +1  BANK12
  6355 ;;      Params:         0       0       0       0       0       0       0       0       0       0       0       0       
      +0       0
  6356 ;;      Locals:         0       0       0       0       0       0       0       0       0       0       0       0       
      +0       0
  6357 ;;      Temps:          0       0       0       0       0       0       0       0       0       0       0       0       
      +0       0
  6358 ;;      Totals:         0       0       0       0       0       0       0       0       0       0       0       0       
      +0       0
  6359 ;;Total ram usage:        0 bytes
  6360 ;; Hardware stack levels used: 1
  6361 ;; Hardware stack levels required when called: 5
  6362 ;; This function calls:
  6363 ;;		Nothing
  6364 ;; This function is called by:
  6365 ;;		_I2C1_DO_RX
  6366 ;; This function uses a non-reentrant model
  6367 ;;
  6368                           
  6369                           
  6370                           ;psect for function _I2C1_MasterGetRxData
  6371  0692                     _I2C1_MasterGetRxData:
  6372  0692                     l2468:	
  6373                           ;incstack = 0
  6374                           ; Regs used in _I2C1_MasterGetRxData: [wreg]
  6375                           
  6376                           
  6377                           ;mcc_generated_files/i2c1_master.c: 565:     return SSP1BUF;
  6378  0692  0024               	movlb	4	; select bank4
  6379  0693  0811               	movf	17,w	;volatile
  6380  0694                     l639:
  6381  0694  0008               	return
  6382  0695                     __end_of_I2C1_MasterGetRxData:
  6383                           
  6384                           	psect	text43
  6385  068B                     __ptext43:	
  6386 ;; *************** function _I2C1_MasterSendNack *****************
  6387 ;; Defined at:
  6388 ;;		line 609 in file "mcc_generated_files/i2c1_master.c"
  6389 ;; Parameters:    Size  Location     Type
  6390 ;;		None
  6391 ;; Auto vars:     Size  Location     Type
  6392 ;;		None
  6393 ;; Return value:  Size  Location     Type
  6394 ;;                  1    wreg      void 
  6395 ;; Registers used:
  6396 ;;		None
  6397 ;; Tracked objects:
  6398 ;;		On entry : 0/0
  6399 ;;		On exit  : 0/0
  6400 ;;		Unchanged: 0/0
  6401 ;; Data sizes:     COMMON   BANK0   BANK1   BANK2   BANK3   BANK4   BANK5   BANK6   BANK7   BANK8   BANK9  BANK10  BANK1
      +1  BANK12
  6402 ;;      Params:         0       0       0       0       0       0       0       0       0       0       0       0       
      +0       0
  6403 ;;      Locals:         0       0       0       0       0       0       0       0       0       0       0       0       
      +0       0
  6404 ;;      Temps:          0       0       0       0       0       0       0       0       0       0       0       0       
      +0       0
  6405 ;;      Totals:         0       0       0       0       0       0       0       0       0       0       0       0       
      +0       0
  6406 ;;Total ram usage:        0 bytes
  6407 ;; Hardware stack levels used: 1
  6408 ;; Hardware stack levels required when called: 5
  6409 ;; This function calls:
  6410 ;;		Nothing
  6411 ;; This function is called by:
  6412 ;;		_I2C1_DO_RX_NACK_STOP
  6413 ;;		_I2C1_DO_RX_NACK_RESTART
  6414 ;; This function uses a non-reentrant model
  6415 ;;
  6416                           
  6417                           
  6418                           ;psect for function _I2C1_MasterSendNack
  6419  068B                     _I2C1_MasterSendNack:
  6420  068B                     l2404:	
  6421                           ;incstack = 0
  6422                           ; Regs used in _I2C1_MasterSendNack: []
  6423                           
  6424                           
  6425                           ;mcc_generated_files/i2c1_master.c: 611:     SSP1CON2bits.ACKDT = 1;
  6426  068B  0024               	movlb	4	; select bank4
  6427  068C  1696               	bsf	22,5	;volatile
  6428                           
  6429                           ;mcc_generated_files/i2c1_master.c: 612:     SSP1CON2bits.ACKEN = 1;
  6430  068D  1616               	bsf	22,4	;volatile
  6431  068E                     l666:
  6432  068E  0008               	return
  6433  068F                     __end_of_I2C1_MasterSendNack:
  6434                           
  6435                           	psect	text44
  6436  0695                     __ptext44:	
  6437 ;; *************** function _I2C1_MasterStartRx *****************
  6438 ;; Defined at:
  6439 ;;		line 583 in file "mcc_generated_files/i2c1_master.c"
  6440 ;; Parameters:    Size  Location     Type
  6441 ;;		None
  6442 ;; Auto vars:     Size  Location     Type
  6443 ;;		None
  6444 ;; Return value:  Size  Location     Type
  6445 ;;                  1    wreg      void 
  6446 ;; Registers used:
  6447 ;;		None
  6448 ;; Tracked objects:
  6449 ;;		On entry : 0/0
  6450 ;;		On exit  : 0/0
  6451 ;;		Unchanged: 0/0
  6452 ;; Data sizes:     COMMON   BANK0   BANK1   BANK2   BANK3   BANK4   BANK5   BANK6   BANK7   BANK8   BANK9  BANK10  BANK1
      +1  BANK12
  6453 ;;      Params:         0       0       0       0       0       0       0       0       0       0       0       0       
      +0       0
  6454 ;;      Locals:         0       0       0       0       0       0       0       0       0       0       0       0       
      +0       0
  6455 ;;      Temps:          0       0       0       0       0       0       0       0       0       0       0       0       
      +0       0
  6456 ;;      Totals:         0       0       0       0       0       0       0       0       0       0       0       0       
      +0       0
  6457 ;;Total ram usage:        0 bytes
  6458 ;; Hardware stack levels used: 1
  6459 ;; Hardware stack levels required when called: 5
  6460 ;; This function calls:
  6461 ;;		Nothing
  6462 ;; This function is called by:
  6463 ;;		_I2C1_DO_RCEN
  6464 ;; This function uses a non-reentrant model
  6465 ;;
  6466                           
  6467                           
  6468                           ;psect for function _I2C1_MasterStartRx
  6469  0695                     _I2C1_MasterStartRx:
  6470  0695                     l2486:	
  6471                           ;incstack = 0
  6472                           ; Regs used in _I2C1_MasterStartRx: []
  6473                           
  6474                           
  6475                           ;mcc_generated_files/i2c1_master.c: 585:     SSP1CON2bits.RCEN = 1;
  6476  0695  0024               	movlb	4	; select bank4
  6477  0696  1596               	bsf	22,3	;volatile
  6478  0697                     l651:
  6479  0697  0008               	return
  6480  0698                     __end_of_I2C1_MasterStartRx:
  6481                           
  6482                           	psect	text45
  6483  03E2                     __ptext45:	
  6484 ;; *************** function _rdBlkRegCompleteHandler@i2c_simple_master$F1288 *****************
  6485 ;; Defined at:
  6486 ;;		line 185 in file "mcc_generated_files/drivers/i2c_simple_master.c"
  6487 ;; Parameters:    Size  Location     Type
  6488 ;;  p               1    5[BANK0 ] PTR void 
  6489 ;;		 -> i2c_readDataBlock@d(3), i2c_write2ByteRegister@data(2), i2c_read2ByteRegister@result(2), i2c_read1ByteRegister@d
      +2(1), 
  6490 ;;		 -> i2c_write1ByteRegister@data(1), I2C1_ReadDataBlock@bufferBlock(3), I2C1_Write2ByteRegister@data(2), I2C1_Write1B
      +yteRegister@data(1), 
  6491 ;;		 -> I2C1_Read2ByteRegister@returnValue(2), NULL(0), I2C1_Read1ByteRegister@returnValue(1), 
  6492 ;; Auto vars:     Size  Location     Type
  6493 ;;		None
  6494 ;; Return value:  Size  Location     Type
  6495 ;;                  1    wreg      enum E360
  6496 ;; Registers used:
  6497 ;;		wreg, fsr1l, fsr1h, status,2, status,0, pclath, cstack
  6498 ;; Tracked objects:
  6499 ;;		On entry : 0/0
  6500 ;;		On exit  : 0/0
  6501 ;;		Unchanged: 0/0
  6502 ;; Data sizes:     COMMON   BANK0   BANK1   BANK2   BANK3   BANK4   BANK5   BANK6   BANK7   BANK8   BANK9  BANK10  BANK1
      +1  BANK12
  6503 ;;      Params:         0       1       0       0       0       0       0       0       0       0       0       0       
      +0       0
  6504 ;;      Locals:         0       0       0       0       0       0       0       0       0       0       0       0       
      +0       0
  6505 ;;      Temps:          0       0       0       0       0       0       0       0       0       0       0       0       
      +0       0
  6506 ;;      Totals:         0       1       0       0       0       0       0       0       0       0       0       0       
      +0       0
  6507 ;;Total ram usage:        1 bytes
  6508 ;; Hardware stack levels used: 1
  6509 ;; Hardware stack levels required when called: 7
  6510 ;; This function calls:
  6511 ;;		_I2C1_SetBuffer
  6512 ;;		_I2C1_SetDataCompleteCallback
  6513 ;; This function is called by:
  6514 ;;		_i2c_readDataBlock
  6515 ;;		_I2C1_DO_TX
  6516 ;;		_I2C1_DO_RX
  6517 ;;		_I2C1_DO_TX_EMPTY
  6518 ;;		_I2C1_DO_ADDRESS_NACK
  6519 ;;		_I2C1_DO_RX_EMPTY
  6520 ;; This function uses a non-reentrant model
  6521 ;;
  6522                           
  6523                           
  6524                           ;psect for function _rdBlkRegCompleteHandler@i2c_simple_master$F1288
  6525  03E2                     _rdBlkRegCompleteHandler@i2c_simple_master$F1288:
  6526  03E2                     l3394:	
  6527                           ;incstack = 0
  6528                           ; Regs used in _rdBlkRegCompleteHandler@i2c_simple_master$F1288: [wreg+fsr1l+fsr1h+statu
      +                          s,2+status,0+pclath+cstack]
  6529                           
  6530                           
  6531                           ;mcc_generated_files/drivers/i2c_simple_master.c: 185: static i2c1_operations_t rdBlkReg
      +                          CompleteHandler(void *p);mcc_generated_files/drivers/i2c_simple_master.c: 186: {;mcc_gen
      +                          erated_files/drivers/i2c_simple_master.c: 187:     I2C1_SetBuffer(((buf_t *)p)->data,((b
      +                          uf_t*)p)->len);
  6532  03E2  0020               	movlb	0	; select bank0
  6533  03E3  0842               	movf	rdBlkRegCompleteHandler@i2c_simple_master$F1288@p,w
  6534  03E4  0086               	movwf	6
  6535  03E5  0187               	clrf	7
  6536  03E6  3F40               	moviw [0]fsr1
  6537  03E7  00F4               	movwf	I2C1_SetBuffer@bufferSize
  6538  03E8  3F41               	moviw [1]fsr1
  6539  03E9  00F5               	movwf	I2C1_SetBuffer@bufferSize+1
  6540  03EA  0842               	movf	rdBlkRegCompleteHandler@i2c_simple_master$F1288@p,w
  6541  03EB  3E02               	addlw	2
  6542  03EC  0086               	movwf	6
  6543  03ED  0187               	clrf	7
  6544  03EE  0801               	movf	1,w
  6545  03EF  3185  257D  3183   	fcall	_I2C1_SetBuffer
  6546                           
  6547                           ;mcc_generated_files/drivers/i2c_simple_master.c: 188:     I2C1_SetDataCompleteCallback(
      +                          ((void*)0),((void*)0));
  6548  03F2  3000               	movlw	0
  6549  03F3  0020               	movlb	0	; select bank0
  6550  03F4  00BE               	movwf	I2C1_SetDataCompleteCallback@cb
  6551  03F5  00BF               	movwf	I2C1_SetDataCompleteCallback@cb+1
  6552  03F6  01C0               	clrf	I2C1_SetDataCompleteCallback@ptr
  6553  03F7  3185  25B7  3183   	fcall	_I2C1_SetDataCompleteCallback
  6554  03FA                     l3396:
  6555                           
  6556                           ;mcc_generated_files/drivers/i2c_simple_master.c: 189:     return I2C1_RESTART_READ;
  6557  03FA  3002               	movlw	2
  6558  03FB                     l771:
  6559  03FB  0008               	return
  6560  03FC                     __end_of_rdBlkRegCompleteHandler@i2c_simple_master$F1288:
  6561                           
  6562                           	psect	text46
  6563  04E5                     __ptext46:	
  6564 ;; *************** function _rd2RegCompleteHandler@i2c_simple_master$F1276 *****************
  6565 ;; Defined at:
  6566 ;;		line 119 in file "mcc_generated_files/drivers/i2c_simple_master.c"
  6567 ;; Parameters:    Size  Location     Type
  6568 ;;  p               1    5[BANK0 ] PTR void 
  6569 ;;		 -> i2c_readDataBlock@d(3), i2c_write2ByteRegister@data(2), i2c_read2ByteRegister@result(2), i2c_read1ByteRegister@d
      +2(1), 
  6570 ;;		 -> i2c_write1ByteRegister@data(1), I2C1_ReadDataBlock@bufferBlock(3), I2C1_Write2ByteRegister@data(2), I2C1_Write1B
      +yteRegister@data(1), 
  6571 ;;		 -> I2C1_Read2ByteRegister@returnValue(2), NULL(0), I2C1_Read1ByteRegister@returnValue(1), 
  6572 ;; Auto vars:     Size  Location     Type
  6573 ;;		None
  6574 ;; Return value:  Size  Location     Type
  6575 ;;                  1    wreg      enum E360
  6576 ;; Registers used:
  6577 ;;		wreg, fsr1l, fsr1h, status,2, status,0, pclath, cstack
  6578 ;; Tracked objects:
  6579 ;;		On entry : 0/0
  6580 ;;		On exit  : 0/0
  6581 ;;		Unchanged: 0/0
  6582 ;; Data sizes:     COMMON   BANK0   BANK1   BANK2   BANK3   BANK4   BANK5   BANK6   BANK7   BANK8   BANK9  BANK10  BANK1
      +1  BANK12
  6583 ;;      Params:         0       1       0       0       0       0       0       0       0       0       0       0       
      +0       0
  6584 ;;      Locals:         0       0       0       0       0       0       0       0       0       0       0       0       
      +0       0
  6585 ;;      Temps:          0       0       0       0       0       0       0       0       0       0       0       0       
      +0       0
  6586 ;;      Totals:         0       1       0       0       0       0       0       0       0       0       0       0       
      +0       0
  6587 ;;Total ram usage:        1 bytes
  6588 ;; Hardware stack levels used: 1
  6589 ;; Hardware stack levels required when called: 7
  6590 ;; This function calls:
  6591 ;;		_I2C1_SetBuffer
  6592 ;;		_I2C1_SetDataCompleteCallback
  6593 ;; This function is called by:
  6594 ;;		_i2c_read2ByteRegister
  6595 ;;		_I2C1_DO_TX
  6596 ;;		_I2C1_DO_RX
  6597 ;;		_I2C1_DO_TX_EMPTY
  6598 ;;		_I2C1_DO_ADDRESS_NACK
  6599 ;;		_I2C1_DO_RX_EMPTY
  6600 ;; This function uses a non-reentrant model
  6601 ;;
  6602                           
  6603                           
  6604                           ;psect for function _rd2RegCompleteHandler@i2c_simple_master$F1276
  6605  04E5                     _rd2RegCompleteHandler@i2c_simple_master$F1276:
  6606  04E5                     l3378:	
  6607                           ;incstack = 0
  6608                           ; Regs used in _rd2RegCompleteHandler@i2c_simple_master$F1276: [wreg+fsr1l+fsr1h+status,
      +                          2+status,0+pclath+cstack]
  6609                           
  6610                           
  6611                           ;mcc_generated_files/drivers/i2c_simple_master.c: 119: static i2c1_operations_t rd2RegCo
      +                          mpleteHandler(void *p);mcc_generated_files/drivers/i2c_simple_master.c: 120: {;mcc_gener
      +                          ated_files/drivers/i2c_simple_master.c: 121:     I2C1_SetBuffer(p,2);
  6612  04E5  3002               	movlw	2
  6613  04E6  00F4               	movwf	I2C1_SetBuffer@bufferSize
  6614  04E7  3000               	movlw	0
  6615  04E8  00F5               	movwf	I2C1_SetBuffer@bufferSize+1
  6616  04E9  0020               	movlb	0	; select bank0
  6617  04EA  0842               	movf	rd2RegCompleteHandler@i2c_simple_master$F1276@p,w
  6618  04EB  3185  257D  3184   	fcall	_I2C1_SetBuffer
  6619  04EE                     l3380:
  6620                           
  6621                           ;mcc_generated_files/drivers/i2c_simple_master.c: 122:     I2C1_SetDataCompleteCallback(
      +                          ((void*)0),((void*)0));
  6622  04EE  3000               	movlw	0
  6623  04EF  0020               	movlb	0	; select bank0
  6624  04F0  00BE               	movwf	I2C1_SetDataCompleteCallback@cb
  6625  04F1  00BF               	movwf	I2C1_SetDataCompleteCallback@cb+1
  6626  04F2  01C0               	clrf	I2C1_SetDataCompleteCallback@ptr
  6627  04F3  3185  25B7  3184   	fcall	_I2C1_SetDataCompleteCallback
  6628  04F6                     l3382:
  6629                           
  6630                           ;mcc_generated_files/drivers/i2c_simple_master.c: 123:     return I2C1_RESTART_READ;
  6631  04F6  3002               	movlw	2
  6632  04F7                     l747:
  6633  04F7  0008               	return
  6634  04F8                     __end_of_rd2RegCompleteHandler@i2c_simple_master$F1276:
  6635                           
  6636                           	psect	text47
  6637  04F8                     __ptext47:	
  6638 ;; *************** function _rd1RegCompleteHandler@i2c_simple_master$F1268 *****************
  6639 ;; Defined at:
  6640 ;;		line 81 in file "mcc_generated_files/drivers/i2c_simple_master.c"
  6641 ;; Parameters:    Size  Location     Type
  6642 ;;  p               1    5[BANK0 ] PTR void 
  6643 ;;		 -> i2c_readDataBlock@d(3), i2c_write2ByteRegister@data(2), i2c_read2ByteRegister@result(2), i2c_read1ByteRegister@d
      +2(1), 
  6644 ;;		 -> i2c_write1ByteRegister@data(1), I2C1_ReadDataBlock@bufferBlock(3), I2C1_Write2ByteRegister@data(2), I2C1_Write1B
      +yteRegister@data(1), 
  6645 ;;		 -> I2C1_Read2ByteRegister@returnValue(2), NULL(0), I2C1_Read1ByteRegister@returnValue(1), 
  6646 ;; Auto vars:     Size  Location     Type
  6647 ;;		None
  6648 ;; Return value:  Size  Location     Type
  6649 ;;                  1    wreg      enum E360
  6650 ;; Registers used:
  6651 ;;		wreg, fsr1l, fsr1h, status,2, status,0, pclath, cstack
  6652 ;; Tracked objects:
  6653 ;;		On entry : 0/0
  6654 ;;		On exit  : 0/0
  6655 ;;		Unchanged: 0/0
  6656 ;; Data sizes:     COMMON   BANK0   BANK1   BANK2   BANK3   BANK4   BANK5   BANK6   BANK7   BANK8   BANK9  BANK10  BANK1
      +1  BANK12
  6657 ;;      Params:         0       1       0       0       0       0       0       0       0       0       0       0       
      +0       0
  6658 ;;      Locals:         0       0       0       0       0       0       0       0       0       0       0       0       
      +0       0
  6659 ;;      Temps:          0       0       0       0       0       0       0       0       0       0       0       0       
      +0       0
  6660 ;;      Totals:         0       1       0       0       0       0       0       0       0       0       0       0       
      +0       0
  6661 ;;Total ram usage:        1 bytes
  6662 ;; Hardware stack levels used: 1
  6663 ;; Hardware stack levels required when called: 7
  6664 ;; This function calls:
  6665 ;;		_I2C1_SetBuffer
  6666 ;;		_I2C1_SetDataCompleteCallback
  6667 ;; This function is called by:
  6668 ;;		_i2c_read1ByteRegister
  6669 ;;		_I2C1_DO_TX
  6670 ;;		_I2C1_DO_RX
  6671 ;;		_I2C1_DO_TX_EMPTY
  6672 ;;		_I2C1_DO_ADDRESS_NACK
  6673 ;;		_I2C1_DO_RX_EMPTY
  6674 ;; This function uses a non-reentrant model
  6675 ;;
  6676                           
  6677                           
  6678                           ;psect for function _rd1RegCompleteHandler@i2c_simple_master$F1268
  6679  04F8                     _rd1RegCompleteHandler@i2c_simple_master$F1268:
  6680  04F8                     l3370:	
  6681                           ;incstack = 0
  6682                           ; Regs used in _rd1RegCompleteHandler@i2c_simple_master$F1268: [wreg+fsr1l+fsr1h+status,
      +                          2+status,0+pclath+cstack]
  6683                           
  6684                           
  6685                           ;mcc_generated_files/drivers/i2c_simple_master.c: 81: static i2c1_operations_t rd1RegCom
      +                          pleteHandler(void *p);mcc_generated_files/drivers/i2c_simple_master.c: 82: {;mcc_generat
      +                          ed_files/drivers/i2c_simple_master.c: 83:     I2C1_SetBuffer(p,1);
  6686  04F8  3001               	movlw	1
  6687  04F9  00F4               	movwf	I2C1_SetBuffer@bufferSize
  6688  04FA  3000               	movlw	0
  6689  04FB  00F5               	movwf	I2C1_SetBuffer@bufferSize+1
  6690  04FC  0020               	movlb	0	; select bank0
  6691  04FD  0842               	movf	rd1RegCompleteHandler@i2c_simple_master$F1268@p,w
  6692  04FE  3185  257D  3184   	fcall	_I2C1_SetBuffer
  6693  0501                     l3372:
  6694                           
  6695                           ;mcc_generated_files/drivers/i2c_simple_master.c: 84:     I2C1_SetDataCompleteCallback((
      +                          (void*)0),((void*)0));
  6696  0501  3000               	movlw	0
  6697  0502  0020               	movlb	0	; select bank0
  6698  0503  00BE               	movwf	I2C1_SetDataCompleteCallback@cb
  6699  0504  00BF               	movwf	I2C1_SetDataCompleteCallback@cb+1
  6700  0505  01C0               	clrf	I2C1_SetDataCompleteCallback@ptr
  6701  0506  3185  25B7  3184   	fcall	_I2C1_SetDataCompleteCallback
  6702  0509                     l3374:
  6703                           
  6704                           ;mcc_generated_files/drivers/i2c_simple_master.c: 85:     return I2C1_RESTART_READ;
  6705  0509  3002               	movlw	2
  6706  050A                     l732:
  6707  050A  0008               	return
  6708  050B                     __end_of_rd1RegCompleteHandler@i2c_simple_master$F1268:
  6709                           
  6710                           	psect	text48
  6711  050B                     __ptext48:	
  6712 ;; *************** function _wr1RegCompleteHandler@i2c_simple_master$F1258 *****************
  6713 ;; Defined at:
  6714 ;;		line 34 in file "mcc_generated_files/drivers/i2c_simple_master.c"
  6715 ;; Parameters:    Size  Location     Type
  6716 ;;  p               1    5[BANK0 ] PTR void 
  6717 ;;		 -> i2c_readDataBlock@d(3), i2c_write2ByteRegister@data(2), i2c_read2ByteRegister@result(2), i2c_read1ByteRegister@d
      +2(1), 
  6718 ;;		 -> i2c_write1ByteRegister@data(1), I2C1_ReadDataBlock@bufferBlock(3), I2C1_Write2ByteRegister@data(2), I2C1_Write1B
      +yteRegister@data(1), 
  6719 ;;		 -> I2C1_Read2ByteRegister@returnValue(2), NULL(0), I2C1_Read1ByteRegister@returnValue(1), 
  6720 ;; Auto vars:     Size  Location     Type
  6721 ;;		None
  6722 ;; Return value:  Size  Location     Type
  6723 ;;                  1    wreg      enum E360
  6724 ;; Registers used:
  6725 ;;		wreg, fsr1l, fsr1h, status,2, status,0, pclath, cstack
  6726 ;; Tracked objects:
  6727 ;;		On entry : 0/0
  6728 ;;		On exit  : 0/0
  6729 ;;		Unchanged: 0/0
  6730 ;; Data sizes:     COMMON   BANK0   BANK1   BANK2   BANK3   BANK4   BANK5   BANK6   BANK7   BANK8   BANK9  BANK10  BANK1
      +1  BANK12
  6731 ;;      Params:         0       1       0       0       0       0       0       0       0       0       0       0       
      +0       0
  6732 ;;      Locals:         0       0       0       0       0       0       0       0       0       0       0       0       
      +0       0
  6733 ;;      Temps:          0       0       0       0       0       0       0       0       0       0       0       0       
      +0       0
  6734 ;;      Totals:         0       1       0       0       0       0       0       0       0       0       0       0       
      +0       0
  6735 ;;Total ram usage:        1 bytes
  6736 ;; Hardware stack levels used: 1
  6737 ;; Hardware stack levels required when called: 7
  6738 ;; This function calls:
  6739 ;;		_I2C1_SetBuffer
  6740 ;;		_I2C1_SetDataCompleteCallback
  6741 ;; This function is called by:
  6742 ;;		_i2c_write1ByteRegister
  6743 ;;		_I2C1_DO_TX
  6744 ;;		_I2C1_DO_RX
  6745 ;;		_I2C1_DO_TX_EMPTY
  6746 ;;		_I2C1_DO_ADDRESS_NACK
  6747 ;;		_I2C1_DO_RX_EMPTY
  6748 ;; This function uses a non-reentrant model
  6749 ;;
  6750                           
  6751                           
  6752                           ;psect for function _wr1RegCompleteHandler@i2c_simple_master$F1258
  6753  050B                     _wr1RegCompleteHandler@i2c_simple_master$F1258:
  6754  050B                     l3362:	
  6755                           ;incstack = 0
  6756                           ; Regs used in _wr1RegCompleteHandler@i2c_simple_master$F1258: [wreg+fsr1l+fsr1h+status,
      +                          2+status,0+pclath+cstack]
  6757                           
  6758                           
  6759                           ;mcc_generated_files/drivers/i2c_simple_master.c: 34: static i2c1_operations_t wr1RegCom
      +                          pleteHandler(void *p);mcc_generated_files/drivers/i2c_simple_master.c: 35: {;mcc_generat
      +                          ed_files/drivers/i2c_simple_master.c: 36:     I2C1_SetBuffer(p,1);
  6760  050B  3001               	movlw	1
  6761  050C  00F4               	movwf	I2C1_SetBuffer@bufferSize
  6762  050D  3000               	movlw	0
  6763  050E  00F5               	movwf	I2C1_SetBuffer@bufferSize+1
  6764  050F  0020               	movlb	0	; select bank0
  6765  0510  0842               	movf	wr1RegCompleteHandler@i2c_simple_master$F1258@p,w
  6766  0511  3185  257D  3185   	fcall	_I2C1_SetBuffer
  6767  0514                     l3364:
  6768                           
  6769                           ;mcc_generated_files/drivers/i2c_simple_master.c: 37:     I2C1_SetDataCompleteCallback((
      +                          (void*)0),((void*)0));
  6770  0514  3000               	movlw	0
  6771  0515  0020               	movlb	0	; select bank0
  6772  0516  00BE               	movwf	I2C1_SetDataCompleteCallback@cb
  6773  0517  00BF               	movwf	I2C1_SetDataCompleteCallback@cb+1
  6774  0518  01C0               	clrf	I2C1_SetDataCompleteCallback@ptr
  6775  0519  3185  25B7  3185   	fcall	_I2C1_SetDataCompleteCallback
  6776  051C                     l3366:
  6777                           
  6778                           ;mcc_generated_files/drivers/i2c_simple_master.c: 38:     return I2C1_CONTINUE;
  6779  051C  3004               	movlw	4
  6780  051D                     l711:
  6781  051D  0008               	return
  6782  051E                     __end_of_wr1RegCompleteHandler@i2c_simple_master$F1258:
  6783                           
  6784                           	psect	text49
  6785  06AA                     __ptext49:	
  6786 ;; *************** function _I2C1_CallbackReturnReset *****************
  6787 ;; Defined at:
  6788 ;;		line 525 in file "mcc_generated_files/i2c1_master.c"
  6789 ;; Parameters:    Size  Location     Type
  6790 ;;  funPtr          1    5[BANK0 ] PTR void 
  6791 ;;		 -> i2c_readDataBlock@d(3), i2c_write2ByteRegister@data(2), i2c_read2ByteRegister@result(2), i2c_read1ByteRegister@d
      +2(1), 
  6792 ;;		 -> i2c_write1ByteRegister@data(1), I2C1_ReadDataBlock@bufferBlock(3), I2C1_Write2ByteRegister@data(2), I2C1_Write1B
      +yteRegister@data(1), 
  6793 ;;		 -> I2C1_Read2ByteRegister@returnValue(2), NULL(0), I2C1_Read1ByteRegister@returnValue(1), 
  6794 ;; Auto vars:     Size  Location     Type
  6795 ;;		None
  6796 ;; Return value:  Size  Location     Type
  6797 ;;                  1    wreg      enum E360
  6798 ;; Registers used:
  6799 ;;		wreg
  6800 ;; Tracked objects:
  6801 ;;		On entry : 0/0
  6802 ;;		On exit  : 0/0
  6803 ;;		Unchanged: 0/0
  6804 ;; Data sizes:     COMMON   BANK0   BANK1   BANK2   BANK3   BANK4   BANK5   BANK6   BANK7   BANK8   BANK9  BANK10  BANK1
      +1  BANK12
  6805 ;;      Params:         0       1       0       0       0       0       0       0       0       0       0       0       
      +0       0
  6806 ;;      Locals:         0       0       0       0       0       0       0       0       0       0       0       0       
      +0       0
  6807 ;;      Temps:          0       0       0       0       0       0       0       0       0       0       0       0       
      +0       0
  6808 ;;      Totals:         0       1       0       0       0       0       0       0       0       0       0       0       
      +0       0
  6809 ;;Total ram usage:        1 bytes
  6810 ;; Hardware stack levels used: 1
  6811 ;; Hardware stack levels required when called: 5
  6812 ;; This function calls:
  6813 ;;		Nothing
  6814 ;; This function is called by:
  6815 ;;		_I2C1_Open
  6816 ;;		_I2C1_DO_TX
  6817 ;;		_I2C1_DO_RX
  6818 ;;		_I2C1_DO_TX_EMPTY
  6819 ;;		_I2C1_DO_ADDRESS_NACK
  6820 ;;		_I2C1_DO_RX_EMPTY
  6821 ;; This function uses a non-reentrant model
  6822 ;;
  6823                           
  6824                           
  6825                           ;psect for function _I2C1_CallbackReturnReset
  6826  06AA                     _I2C1_CallbackReturnReset:
  6827  06AA                     l2500:	
  6828                           ;incstack = 0
  6829                           ; Regs used in _I2C1_CallbackReturnReset: [wreg]
  6830                           
  6831                           
  6832                           ;mcc_generated_files/i2c1_master.c: 525: i2c1_operations_t I2C1_CallbackReturnReset(void
      +                           *funPtr);mcc_generated_files/i2c1_master.c: 526: {;mcc_generated_files/i2c1_master.c: 5
      +                          27:     return I2C1_RESET_LINK;
  6833  06AA  3005               	movlw	5
  6834  06AB                     l623:
  6835  06AB  0008               	return
  6836  06AC                     __end_of_I2C1_CallbackReturnReset:
  6837                           
  6838                           	psect	text50
  6839  06AC                     __ptext50:	
  6840 ;; *************** function _I2C1_CallbackReturnStop *****************
  6841 ;; Defined at:
  6842 ;;		line 520 in file "mcc_generated_files/i2c1_master.c"
  6843 ;; Parameters:    Size  Location     Type
  6844 ;;  funPtr          1    5[BANK0 ] PTR void 
  6845 ;;		 -> i2c_readDataBlock@d(3), i2c_write2ByteRegister@data(2), i2c_read2ByteRegister@result(2), i2c_read1ByteRegister@d
      +2(1), 
  6846 ;;		 -> i2c_write1ByteRegister@data(1), I2C1_ReadDataBlock@bufferBlock(3), I2C1_Write2ByteRegister@data(2), I2C1_Write1B
      +yteRegister@data(1), 
  6847 ;;		 -> I2C1_Read2ByteRegister@returnValue(2), NULL(0), I2C1_Read1ByteRegister@returnValue(1), 
  6848 ;; Auto vars:     Size  Location     Type
  6849 ;;		None
  6850 ;; Return value:  Size  Location     Type
  6851 ;;                  1    wreg      enum E360
  6852 ;; Registers used:
  6853 ;;		wreg
  6854 ;; Tracked objects:
  6855 ;;		On entry : 0/0
  6856 ;;		On exit  : 0/0
  6857 ;;		Unchanged: 0/0
  6858 ;; Data sizes:     COMMON   BANK0   BANK1   BANK2   BANK3   BANK4   BANK5   BANK6   BANK7   BANK8   BANK9  BANK10  BANK1
      +1  BANK12
  6859 ;;      Params:         0       1       0       0       0       0       0       0       0       0       0       0       
      +0       0
  6860 ;;      Locals:         0       0       0       0       0       0       0       0       0       0       0       0       
      +0       0
  6861 ;;      Temps:          0       0       0       0       0       0       0       0       0       0       0       0       
      +0       0
  6862 ;;      Totals:         0       1       0       0       0       0       0       0       0       0       0       0       
      +0       0
  6863 ;;Total ram usage:        1 bytes
  6864 ;; Hardware stack levels used: 1
  6865 ;; Hardware stack levels required when called: 5
  6866 ;; This function calls:
  6867 ;;		Nothing
  6868 ;; This function is called by:
  6869 ;;		_I2C1_Open
  6870 ;;		_I2C1_SetCallback
  6871 ;;		_I2C1_DO_TX
  6872 ;;		_I2C1_DO_RX
  6873 ;;		_I2C1_DO_TX_EMPTY
  6874 ;;		_I2C1_DO_ADDRESS_NACK
  6875 ;;		_I2C1_DO_RX_EMPTY
  6876 ;; This function uses a non-reentrant model
  6877 ;;
  6878                           
  6879                           
  6880                           ;psect for function _I2C1_CallbackReturnStop
  6881  06AC                     _I2C1_CallbackReturnStop:
  6882  06AC                     l2496:	
  6883                           ;incstack = 0
  6884                           ; Regs used in _I2C1_CallbackReturnStop: [wreg]
  6885                           
  6886                           
  6887                           ;mcc_generated_files/i2c1_master.c: 520: i2c1_operations_t I2C1_CallbackReturnStop(void 
      +                          *funPtr);mcc_generated_files/i2c1_master.c: 521: {;mcc_generated_files/i2c1_master.c: 52
      +                          2:     return I2C1_STOP;
  6888  06AC  3001               	movlw	1
  6889  06AD                     l620:
  6890  06AD  0008               	return
  6891  06AE                     __end_of_I2C1_CallbackReturnStop:
  6892                           
  6893                           	psect	text51
  6894  03FC                     __ptext51:	
  6895 ;; *************** function _rdBlkRegCompleteHandler *****************
  6896 ;; Defined at:
  6897 ;;		line 170 in file "mcc_generated_files/examples/i2c1_master_example.c"
  6898 ;; Parameters:    Size  Location     Type
  6899 ;;  ptr             1    5[BANK0 ] PTR void 
  6900 ;;		 -> i2c_readDataBlock@d(3), i2c_write2ByteRegister@data(2), i2c_read2ByteRegister@result(2), i2c_read1ByteRegister@d
      +2(1), 
  6901 ;;		 -> i2c_write1ByteRegister@data(1), I2C1_ReadDataBlock@bufferBlock(3), I2C1_Write2ByteRegister@data(2), I2C1_Write1B
      +yteRegister@data(1), 
  6902 ;;		 -> I2C1_Read2ByteRegister@returnValue(2), NULL(0), I2C1_Read1ByteRegister@returnValue(1), 
  6903 ;; Auto vars:     Size  Location     Type
  6904 ;;		None
  6905 ;; Return value:  Size  Location     Type
  6906 ;;                  1    wreg      enum E360
  6907 ;; Registers used:
  6908 ;;		wreg, fsr1l, fsr1h, status,2, status,0, pclath, cstack
  6909 ;; Tracked objects:
  6910 ;;		On entry : 0/0
  6911 ;;		On exit  : 0/0
  6912 ;;		Unchanged: 0/0
  6913 ;; Data sizes:     COMMON   BANK0   BANK1   BANK2   BANK3   BANK4   BANK5   BANK6   BANK7   BANK8   BANK9  BANK10  BANK1
      +1  BANK12
  6914 ;;      Params:         0       1       0       0       0       0       0       0       0       0       0       0       
      +0       0
  6915 ;;      Locals:         0       0       0       0       0       0       0       0       0       0       0       0       
      +0       0
  6916 ;;      Temps:          0       0       0       0       0       0       0       0       0       0       0       0       
      +0       0
  6917 ;;      Totals:         0       1       0       0       0       0       0       0       0       0       0       0       
      +0       0
  6918 ;;Total ram usage:        1 bytes
  6919 ;; Hardware stack levels used: 1
  6920 ;; Hardware stack levels required when called: 7
  6921 ;; This function calls:
  6922 ;;		_I2C1_SetBuffer
  6923 ;;		_I2C1_SetDataCompleteCallback
  6924 ;; This function is called by:
  6925 ;;		_I2C1_ReadDataBlock
  6926 ;;		_I2C1_DO_TX
  6927 ;;		_I2C1_DO_RX
  6928 ;;		_I2C1_DO_TX_EMPTY
  6929 ;;		_I2C1_DO_ADDRESS_NACK
  6930 ;;		_I2C1_DO_RX_EMPTY
  6931 ;; This function uses a non-reentrant model
  6932 ;;
  6933                           
  6934                           
  6935                           ;psect for function _rdBlkRegCompleteHandler
  6936  03FC                     _rdBlkRegCompleteHandler:
  6937  03FC                     l3356:	
  6938                           ;incstack = 0
  6939                           ; Regs used in _rdBlkRegCompleteHandler: [wreg+fsr1l+fsr1h+status,2+status,0+pclath+csta
      +                          ck]
  6940                           
  6941                           
  6942                           ;mcc_generated_files/examples/i2c1_master_example.c: 170: static i2c1_operations_t rdBlk
      +                          RegCompleteHandler(void *ptr);mcc_generated_files/examples/i2c1_master_example.c: 171: {
      +                          ;mcc_generated_files/examples/i2c1_master_example.c: 172:     I2C1_SetBuffer(((i2c1_buff
      +                          er_t *)ptr)->data,((i2c1_buffer_t*)ptr)->len);
  6943  03FC  0020               	movlb	0	; select bank0
  6944  03FD  0842               	movf	rdBlkRegCompleteHandler@ptr,w
  6945  03FE  0086               	movwf	6
  6946  03FF  0187               	clrf	7
  6947  0400  3F40               	moviw [0]fsr1
  6948  0401  00F4               	movwf	I2C1_SetBuffer@bufferSize
  6949  0402  3F41               	moviw [1]fsr1
  6950  0403  00F5               	movwf	I2C1_SetBuffer@bufferSize+1
  6951  0404  0842               	movf	rdBlkRegCompleteHandler@ptr,w
  6952  0405  3E02               	addlw	2
  6953  0406  0086               	movwf	6
  6954  0407  0187               	clrf	7
  6955  0408  0801               	movf	1,w
  6956  0409  3185  257D  3183   	fcall	_I2C1_SetBuffer
  6957                           
  6958                           ;mcc_generated_files/examples/i2c1_master_example.c: 173:     I2C1_SetDataCompleteCallba
      +                          ck(((void*)0),((void*)0));
  6959  040C  3000               	movlw	0
  6960  040D  0020               	movlb	0	; select bank0
  6961  040E  00BE               	movwf	I2C1_SetDataCompleteCallback@cb
  6962  040F  00BF               	movwf	I2C1_SetDataCompleteCallback@cb+1
  6963  0410  01C0               	clrf	I2C1_SetDataCompleteCallback@ptr
  6964  0411  3185  25B7  3183   	fcall	_I2C1_SetDataCompleteCallback
  6965  0414                     l3358:
  6966                           
  6967                           ;mcc_generated_files/examples/i2c1_master_example.c: 174:     return I2C1_RESTART_READ;
  6968  0414  3002               	movlw	2
  6969  0415                     l357:
  6970  0415  0008               	return
  6971  0416                     __end_of_rdBlkRegCompleteHandler:
  6972                           
  6973                           	psect	text52
  6974  051E                     __ptext52:	
  6975 ;; *************** function _wr2RegCompleteHandler *****************
  6976 ;; Defined at:
  6977 ;;		line 163 in file "mcc_generated_files/examples/i2c1_master_example.c"
  6978 ;; Parameters:    Size  Location     Type
  6979 ;;  ptr             1    5[BANK0 ] PTR void 
  6980 ;;		 -> i2c_readDataBlock@d(3), i2c_write2ByteRegister@data(2), i2c_read2ByteRegister@result(2), i2c_read1ByteRegister@d
      +2(1), 
  6981 ;;		 -> i2c_write1ByteRegister@data(1), I2C1_ReadDataBlock@bufferBlock(3), I2C1_Write2ByteRegister@data(2), I2C1_Write1B
      +yteRegister@data(1), 
  6982 ;;		 -> I2C1_Read2ByteRegister@returnValue(2), NULL(0), I2C1_Read1ByteRegister@returnValue(1), 
  6983 ;; Auto vars:     Size  Location     Type
  6984 ;;		None
  6985 ;; Return value:  Size  Location     Type
  6986 ;;                  1    wreg      enum E360
  6987 ;; Registers used:
  6988 ;;		wreg, fsr1l, fsr1h, status,2, status,0, pclath, cstack
  6989 ;; Tracked objects:
  6990 ;;		On entry : 0/0
  6991 ;;		On exit  : 0/0
  6992 ;;		Unchanged: 0/0
  6993 ;; Data sizes:     COMMON   BANK0   BANK1   BANK2   BANK3   BANK4   BANK5   BANK6   BANK7   BANK8   BANK9  BANK10  BANK1
      +1  BANK12
  6994 ;;      Params:         0       1       0       0       0       0       0       0       0       0       0       0       
      +0       0
  6995 ;;      Locals:         0       0       0       0       0       0       0       0       0       0       0       0       
      +0       0
  6996 ;;      Temps:          0       0       0       0       0       0       0       0       0       0       0       0       
      +0       0
  6997 ;;      Totals:         0       1       0       0       0       0       0       0       0       0       0       0       
      +0       0
  6998 ;;Total ram usage:        1 bytes
  6999 ;; Hardware stack levels used: 1
  7000 ;; Hardware stack levels required when called: 7
  7001 ;; This function calls:
  7002 ;;		_I2C1_SetBuffer
  7003 ;;		_I2C1_SetDataCompleteCallback
  7004 ;; This function is called by:
  7005 ;;		_I2C1_Write2ByteRegister
  7006 ;;		_I2C1_DO_TX
  7007 ;;		_I2C1_DO_RX
  7008 ;;		_I2C1_DO_TX_EMPTY
  7009 ;;		_I2C1_DO_ADDRESS_NACK
  7010 ;;		_I2C1_DO_RX_EMPTY
  7011 ;; This function uses a non-reentrant model
  7012 ;;
  7013                           
  7014                           
  7015                           ;psect for function _wr2RegCompleteHandler
  7016  051E                     _wr2RegCompleteHandler:
  7017  051E                     l3348:	
  7018                           ;incstack = 0
  7019                           ; Regs used in _wr2RegCompleteHandler: [wreg+fsr1l+fsr1h+status,2+status,0+pclath+cstack
      +                          ]
  7020                           
  7021                           
  7022                           ;mcc_generated_files/examples/i2c1_master_example.c: 163: static i2c1_operations_t wr2Re
      +                          gCompleteHandler(void *ptr);mcc_generated_files/examples/i2c1_master_example.c: 164: {;m
      +                          cc_generated_files/examples/i2c1_master_example.c: 165:     I2C1_SetBuffer(ptr,2);
  7023  051E  3002               	movlw	2
  7024  051F  00F4               	movwf	I2C1_SetBuffer@bufferSize
  7025  0520  3000               	movlw	0
  7026  0521  00F5               	movwf	I2C1_SetBuffer@bufferSize+1
  7027  0522  0020               	movlb	0	; select bank0
  7028  0523  0842               	movf	wr2RegCompleteHandler@ptr,w
  7029  0524  3185  257D  3185   	fcall	_I2C1_SetBuffer
  7030  0527                     l3350:
  7031                           
  7032                           ;mcc_generated_files/examples/i2c1_master_example.c: 166:     I2C1_SetDataCompleteCallba
      +                          ck(((void*)0),((void*)0));
  7033  0527  3000               	movlw	0
  7034  0528  0020               	movlb	0	; select bank0
  7035  0529  00BE               	movwf	I2C1_SetDataCompleteCallback@cb
  7036  052A  00BF               	movwf	I2C1_SetDataCompleteCallback@cb+1
  7037  052B  01C0               	clrf	I2C1_SetDataCompleteCallback@ptr
  7038  052C  3185  25B7  3185   	fcall	_I2C1_SetDataCompleteCallback
  7039  052F                     l3352:
  7040                           
  7041                           ;mcc_generated_files/examples/i2c1_master_example.c: 167:     return I2C1_CONTINUE;
  7042  052F  3004               	movlw	4
  7043  0530                     l354:
  7044  0530  0008               	return
  7045  0531                     __end_of_wr2RegCompleteHandler:
  7046                           
  7047                           	psect	text53
  7048  0531                     __ptext53:	
  7049 ;; *************** function _wr1RegCompleteHandler *****************
  7050 ;; Defined at:
  7051 ;;		line 156 in file "mcc_generated_files/examples/i2c1_master_example.c"
  7052 ;; Parameters:    Size  Location     Type
  7053 ;;  ptr             1    5[BANK0 ] PTR void 
  7054 ;;		 -> i2c_readDataBlock@d(3), i2c_write2ByteRegister@data(2), i2c_read2ByteRegister@result(2), i2c_read1ByteRegister@d
      +2(1), 
  7055 ;;		 -> i2c_write1ByteRegister@data(1), I2C1_ReadDataBlock@bufferBlock(3), I2C1_Write2ByteRegister@data(2), I2C1_Write1B
      +yteRegister@data(1), 
  7056 ;;		 -> I2C1_Read2ByteRegister@returnValue(2), NULL(0), I2C1_Read1ByteRegister@returnValue(1), 
  7057 ;; Auto vars:     Size  Location     Type
  7058 ;;		None
  7059 ;; Return value:  Size  Location     Type
  7060 ;;                  1    wreg      enum E360
  7061 ;; Registers used:
  7062 ;;		wreg, fsr1l, fsr1h, status,2, status,0, pclath, cstack
  7063 ;; Tracked objects:
  7064 ;;		On entry : 0/0
  7065 ;;		On exit  : 0/0
  7066 ;;		Unchanged: 0/0
  7067 ;; Data sizes:     COMMON   BANK0   BANK1   BANK2   BANK3   BANK4   BANK5   BANK6   BANK7   BANK8   BANK9  BANK10  BANK1
      +1  BANK12
  7068 ;;      Params:         0       1       0       0       0       0       0       0       0       0       0       0       
      +0       0
  7069 ;;      Locals:         0       0       0       0       0       0       0       0       0       0       0       0       
      +0       0
  7070 ;;      Temps:          0       0       0       0       0       0       0       0       0       0       0       0       
      +0       0
  7071 ;;      Totals:         0       1       0       0       0       0       0       0       0       0       0       0       
      +0       0
  7072 ;;Total ram usage:        1 bytes
  7073 ;; Hardware stack levels used: 1
  7074 ;; Hardware stack levels required when called: 7
  7075 ;; This function calls:
  7076 ;;		_I2C1_SetBuffer
  7077 ;;		_I2C1_SetDataCompleteCallback
  7078 ;; This function is called by:
  7079 ;;		_I2C1_Write1ByteRegister
  7080 ;;		_I2C1_DO_TX
  7081 ;;		_I2C1_DO_RX
  7082 ;;		_I2C1_DO_TX_EMPTY
  7083 ;;		_I2C1_DO_ADDRESS_NACK
  7084 ;;		_I2C1_DO_RX_EMPTY
  7085 ;; This function uses a non-reentrant model
  7086 ;;
  7087                           
  7088                           
  7089                           ;psect for function _wr1RegCompleteHandler
  7090  0531                     _wr1RegCompleteHandler:
  7091  0531                     l3340:	
  7092                           ;incstack = 0
  7093                           ; Regs used in _wr1RegCompleteHandler: [wreg+fsr1l+fsr1h+status,2+status,0+pclath+cstack
      +                          ]
  7094                           
  7095                           
  7096                           ;mcc_generated_files/examples/i2c1_master_example.c: 156: static i2c1_operations_t wr1Re
      +                          gCompleteHandler(void *ptr);mcc_generated_files/examples/i2c1_master_example.c: 157: {;m
      +                          cc_generated_files/examples/i2c1_master_example.c: 158:     I2C1_SetBuffer(ptr,1);
  7097  0531  3001               	movlw	1
  7098  0532  00F4               	movwf	I2C1_SetBuffer@bufferSize
  7099  0533  3000               	movlw	0
  7100  0534  00F5               	movwf	I2C1_SetBuffer@bufferSize+1
  7101  0535  0020               	movlb	0	; select bank0
  7102  0536  0842               	movf	wr1RegCompleteHandler@ptr,w
  7103  0537  3185  257D  3185   	fcall	_I2C1_SetBuffer
  7104  053A                     l3342:
  7105                           
  7106                           ;mcc_generated_files/examples/i2c1_master_example.c: 159:     I2C1_SetDataCompleteCallba
      +                          ck(((void*)0),((void*)0));
  7107  053A  3000               	movlw	0
  7108  053B  0020               	movlb	0	; select bank0
  7109  053C  00BE               	movwf	I2C1_SetDataCompleteCallback@cb
  7110  053D  00BF               	movwf	I2C1_SetDataCompleteCallback@cb+1
  7111  053E  01C0               	clrf	I2C1_SetDataCompleteCallback@ptr
  7112  053F  3185  25B7  3185   	fcall	_I2C1_SetDataCompleteCallback
  7113  0542                     l3344:
  7114                           
  7115                           ;mcc_generated_files/examples/i2c1_master_example.c: 160:     return I2C1_CONTINUE;
  7116  0542  3004               	movlw	4
  7117  0543                     l351:
  7118  0543  0008               	return
  7119  0544                     __end_of_wr1RegCompleteHandler:
  7120                           
  7121                           	psect	text54
  7122  0544                     __ptext54:	
  7123 ;; *************** function _rd2RegCompleteHandler *****************
  7124 ;; Defined at:
  7125 ;;		line 149 in file "mcc_generated_files/examples/i2c1_master_example.c"
  7126 ;; Parameters:    Size  Location     Type
  7127 ;;  ptr             1    5[BANK0 ] PTR void 
  7128 ;;		 -> i2c_readDataBlock@d(3), i2c_write2ByteRegister@data(2), i2c_read2ByteRegister@result(2), i2c_read1ByteRegister@d
      +2(1), 
  7129 ;;		 -> i2c_write1ByteRegister@data(1), I2C1_ReadDataBlock@bufferBlock(3), I2C1_Write2ByteRegister@data(2), I2C1_Write1B
      +yteRegister@data(1), 
  7130 ;;		 -> I2C1_Read2ByteRegister@returnValue(2), NULL(0), I2C1_Read1ByteRegister@returnValue(1), 
  7131 ;; Auto vars:     Size  Location     Type
  7132 ;;		None
  7133 ;; Return value:  Size  Location     Type
  7134 ;;                  1    wreg      enum E360
  7135 ;; Registers used:
  7136 ;;		wreg, fsr1l, fsr1h, status,2, status,0, pclath, cstack
  7137 ;; Tracked objects:
  7138 ;;		On entry : 0/0
  7139 ;;		On exit  : 0/0
  7140 ;;		Unchanged: 0/0
  7141 ;; Data sizes:     COMMON   BANK0   BANK1   BANK2   BANK3   BANK4   BANK5   BANK6   BANK7   BANK8   BANK9  BANK10  BANK1
      +1  BANK12
  7142 ;;      Params:         0       1       0       0       0       0       0       0       0       0       0       0       
      +0       0
  7143 ;;      Locals:         0       0       0       0       0       0       0       0       0       0       0       0       
      +0       0
  7144 ;;      Temps:          0       0       0       0       0       0       0       0       0       0       0       0       
      +0       0
  7145 ;;      Totals:         0       1       0       0       0       0       0       0       0       0       0       0       
      +0       0
  7146 ;;Total ram usage:        1 bytes
  7147 ;; Hardware stack levels used: 1
  7148 ;; Hardware stack levels required when called: 7
  7149 ;; This function calls:
  7150 ;;		_I2C1_SetBuffer
  7151 ;;		_I2C1_SetDataCompleteCallback
  7152 ;; This function is called by:
  7153 ;;		_I2C1_Read2ByteRegister
  7154 ;;		_I2C1_DO_TX
  7155 ;;		_I2C1_DO_RX
  7156 ;;		_I2C1_DO_TX_EMPTY
  7157 ;;		_I2C1_DO_ADDRESS_NACK
  7158 ;;		_I2C1_DO_RX_EMPTY
  7159 ;; This function uses a non-reentrant model
  7160 ;;
  7161                           
  7162                           
  7163                           ;psect for function _rd2RegCompleteHandler
  7164  0544                     _rd2RegCompleteHandler:
  7165  0544                     l3332:	
  7166                           ;incstack = 0
  7167                           ; Regs used in _rd2RegCompleteHandler: [wreg+fsr1l+fsr1h+status,2+status,0+pclath+cstack
      +                          ]
  7168                           
  7169                           
  7170                           ;mcc_generated_files/examples/i2c1_master_example.c: 149: static i2c1_operations_t rd2Re
      +                          gCompleteHandler(void *ptr);mcc_generated_files/examples/i2c1_master_example.c: 150: {;m
      +                          cc_generated_files/examples/i2c1_master_example.c: 151:     I2C1_SetBuffer(ptr,2);
  7171  0544  3002               	movlw	2
  7172  0545  00F4               	movwf	I2C1_SetBuffer@bufferSize
  7173  0546  3000               	movlw	0
  7174  0547  00F5               	movwf	I2C1_SetBuffer@bufferSize+1
  7175  0548  0020               	movlb	0	; select bank0
  7176  0549  0842               	movf	rd2RegCompleteHandler@ptr,w
  7177  054A  3185  257D  3185   	fcall	_I2C1_SetBuffer
  7178  054D                     l3334:
  7179                           
  7180                           ;mcc_generated_files/examples/i2c1_master_example.c: 152:     I2C1_SetDataCompleteCallba
      +                          ck(((void*)0),((void*)0));
  7181  054D  3000               	movlw	0
  7182  054E  0020               	movlb	0	; select bank0
  7183  054F  00BE               	movwf	I2C1_SetDataCompleteCallback@cb
  7184  0550  00BF               	movwf	I2C1_SetDataCompleteCallback@cb+1
  7185  0551  01C0               	clrf	I2C1_SetDataCompleteCallback@ptr
  7186  0552  3185  25B7  3185   	fcall	_I2C1_SetDataCompleteCallback
  7187  0555                     l3336:
  7188                           
  7189                           ;mcc_generated_files/examples/i2c1_master_example.c: 153:     return I2C1_RESTART_READ;
  7190  0555  3002               	movlw	2
  7191  0556                     l348:
  7192  0556  0008               	return
  7193  0557                     __end_of_rd2RegCompleteHandler:
  7194                           
  7195                           	psect	text55
  7196  0557                     __ptext55:	
  7197 ;; *************** function _rd1RegCompleteHandler *****************
  7198 ;; Defined at:
  7199 ;;		line 142 in file "mcc_generated_files/examples/i2c1_master_example.c"
  7200 ;; Parameters:    Size  Location     Type
  7201 ;;  ptr             1    5[BANK0 ] PTR void 
  7202 ;;		 -> i2c_readDataBlock@d(3), i2c_write2ByteRegister@data(2), i2c_read2ByteRegister@result(2), i2c_read1ByteRegister@d
      +2(1), 
  7203 ;;		 -> i2c_write1ByteRegister@data(1), I2C1_ReadDataBlock@bufferBlock(3), I2C1_Write2ByteRegister@data(2), I2C1_Write1B
      +yteRegister@data(1), 
  7204 ;;		 -> I2C1_Read2ByteRegister@returnValue(2), NULL(0), I2C1_Read1ByteRegister@returnValue(1), 
  7205 ;; Auto vars:     Size  Location     Type
  7206 ;;		None
  7207 ;; Return value:  Size  Location     Type
  7208 ;;                  1    wreg      enum E360
  7209 ;; Registers used:
  7210 ;;		wreg, fsr1l, fsr1h, status,2, status,0, pclath, cstack
  7211 ;; Tracked objects:
  7212 ;;		On entry : 0/0
  7213 ;;		On exit  : 0/0
  7214 ;;		Unchanged: 0/0
  7215 ;; Data sizes:     COMMON   BANK0   BANK1   BANK2   BANK3   BANK4   BANK5   BANK6   BANK7   BANK8   BANK9  BANK10  BANK1
      +1  BANK12
  7216 ;;      Params:         0       1       0       0       0       0       0       0       0       0       0       0       
      +0       0
  7217 ;;      Locals:         0       0       0       0       0       0       0       0       0       0       0       0       
      +0       0
  7218 ;;      Temps:          0       0       0       0       0       0       0       0       0       0       0       0       
      +0       0
  7219 ;;      Totals:         0       1       0       0       0       0       0       0       0       0       0       0       
      +0       0
  7220 ;;Total ram usage:        1 bytes
  7221 ;; Hardware stack levels used: 1
  7222 ;; Hardware stack levels required when called: 7
  7223 ;; This function calls:
  7224 ;;		_I2C1_SetBuffer
  7225 ;;		_I2C1_SetDataCompleteCallback
  7226 ;; This function is called by:
  7227 ;;		_I2C1_Read1ByteRegister
  7228 ;;		_I2C1_DO_TX
  7229 ;;		_I2C1_DO_RX
  7230 ;;		_I2C1_DO_TX_EMPTY
  7231 ;;		_I2C1_DO_ADDRESS_NACK
  7232 ;;		_I2C1_DO_RX_EMPTY
  7233 ;; This function uses a non-reentrant model
  7234 ;;
  7235                           
  7236                           
  7237                           ;psect for function _rd1RegCompleteHandler
  7238  0557                     _rd1RegCompleteHandler:
  7239  0557                     l3324:	
  7240                           ;incstack = 0
  7241                           ; Regs used in _rd1RegCompleteHandler: [wreg+fsr1l+fsr1h+status,2+status,0+pclath+cstack
      +                          ]
  7242                           
  7243                           
  7244                           ;mcc_generated_files/examples/i2c1_master_example.c: 142: static i2c1_operations_t rd1Re
      +                          gCompleteHandler(void *ptr);mcc_generated_files/examples/i2c1_master_example.c: 143: {;m
      +                          cc_generated_files/examples/i2c1_master_example.c: 144:     I2C1_SetBuffer(ptr,1);
  7245  0557  3001               	movlw	1
  7246  0558  00F4               	movwf	I2C1_SetBuffer@bufferSize
  7247  0559  3000               	movlw	0
  7248  055A  00F5               	movwf	I2C1_SetBuffer@bufferSize+1
  7249  055B  0020               	movlb	0	; select bank0
  7250  055C  0842               	movf	rd1RegCompleteHandler@ptr,w
  7251  055D  3185  257D  3185   	fcall	_I2C1_SetBuffer
  7252  0560                     l3326:
  7253                           
  7254                           ;mcc_generated_files/examples/i2c1_master_example.c: 145:     I2C1_SetDataCompleteCallba
      +                          ck(((void*)0),((void*)0));
  7255  0560  3000               	movlw	0
  7256  0561  0020               	movlb	0	; select bank0
  7257  0562  00BE               	movwf	I2C1_SetDataCompleteCallback@cb
  7258  0563  00BF               	movwf	I2C1_SetDataCompleteCallback@cb+1
  7259  0564  01C0               	clrf	I2C1_SetDataCompleteCallback@ptr
  7260  0565  3185  25B7  3185   	fcall	_I2C1_SetDataCompleteCallback
  7261  0568                     l3328:
  7262                           
  7263                           ;mcc_generated_files/examples/i2c1_master_example.c: 146:     return I2C1_RESTART_READ;
  7264  0568  3002               	movlw	2
  7265  0569                     l345:
  7266  0569  0008               	return
  7267  056A                     __end_of_rd1RegCompleteHandler:
  7268                           
  7269                           	psect	text56
  7270  056A                     __ptext56:	
  7271 ;; *************** function _wr2RegCompleteHandler@i2c_simple_master$F1282 *****************
  7272 ;; Defined at:
  7273 ;;		line 151 in file "mcc_generated_files/drivers/i2c_simple_master.c"
  7274 ;; Parameters:    Size  Location     Type
  7275 ;;  p               1    5[BANK0 ] PTR void 
  7276 ;;		 -> i2c_readDataBlock@d(3), i2c_write2ByteRegister@data(2), i2c_read2ByteRegister@result(2), i2c_read1ByteRegister@d
      +2(1), 
  7277 ;;		 -> i2c_write1ByteRegister@data(1), I2C1_ReadDataBlock@bufferBlock(3), I2C1_Write2ByteRegister@data(2), I2C1_Write1B
      +yteRegister@data(1), 
  7278 ;;		 -> I2C1_Read2ByteRegister@returnValue(2), NULL(0), I2C1_Read1ByteRegister@returnValue(1), 
  7279 ;; Auto vars:     Size  Location     Type
  7280 ;;		None
  7281 ;; Return value:  Size  Location     Type
  7282 ;;                  1    wreg      enum E360
  7283 ;; Registers used:
  7284 ;;		wreg, fsr1l, fsr1h, status,2, status,0, pclath, cstack
  7285 ;; Tracked objects:
  7286 ;;		On entry : 0/0
  7287 ;;		On exit  : 0/0
  7288 ;;		Unchanged: 0/0
  7289 ;; Data sizes:     COMMON   BANK0   BANK1   BANK2   BANK3   BANK4   BANK5   BANK6   BANK7   BANK8   BANK9  BANK10  BANK1
      +1  BANK12
  7290 ;;      Params:         0       1       0       0       0       0       0       0       0       0       0       0       
      +0       0
  7291 ;;      Locals:         0       0       0       0       0       0       0       0       0       0       0       0       
      +0       0
  7292 ;;      Temps:          0       0       0       0       0       0       0       0       0       0       0       0       
      +0       0
  7293 ;;      Totals:         0       1       0       0       0       0       0       0       0       0       0       0       
      +0       0
  7294 ;;Total ram usage:        1 bytes
  7295 ;; Hardware stack levels used: 1
  7296 ;; Hardware stack levels required when called: 7
  7297 ;; This function calls:
  7298 ;;		_I2C1_SetBuffer
  7299 ;;		_I2C1_SetDataCompleteCallback
  7300 ;; This function is called by:
  7301 ;;		_i2c_write2ByteRegister
  7302 ;;		_I2C1_DO_TX
  7303 ;;		_I2C1_DO_RX
  7304 ;;		_I2C1_DO_TX_EMPTY
  7305 ;;		_I2C1_DO_ADDRESS_NACK
  7306 ;;		_I2C1_DO_RX_EMPTY
  7307 ;; This function uses a non-reentrant model
  7308 ;;
  7309                           
  7310                           
  7311                           ;psect for function _wr2RegCompleteHandler@i2c_simple_master$F1282
  7312  056A                     _wr2RegCompleteHandler@i2c_simple_master$F1282:
  7313  056A                     l3386:	
  7314                           ;incstack = 0
  7315                           ; Regs used in _wr2RegCompleteHandler@i2c_simple_master$F1282: [wreg+fsr1l+fsr1h+status,
      +                          2+status,0+pclath+cstack]
  7316                           
  7317                           
  7318                           ;mcc_generated_files/drivers/i2c_simple_master.c: 151: static i2c1_operations_t wr2RegCo
      +                          mpleteHandler(void *p);mcc_generated_files/drivers/i2c_simple_master.c: 152: {;mcc_gener
      +                          ated_files/drivers/i2c_simple_master.c: 153:     I2C1_SetBuffer(p,2);
  7319  056A  3002               	movlw	2
  7320  056B  00F4               	movwf	I2C1_SetBuffer@bufferSize
  7321  056C  3000               	movlw	0
  7322  056D  00F5               	movwf	I2C1_SetBuffer@bufferSize+1
  7323  056E  0020               	movlb	0	; select bank0
  7324  056F  0842               	movf	wr2RegCompleteHandler@i2c_simple_master$F1282@p,w
  7325  0570  3185  257D  3185   	fcall	_I2C1_SetBuffer
  7326  0573                     l3388:
  7327                           
  7328                           ;mcc_generated_files/drivers/i2c_simple_master.c: 154:     I2C1_SetDataCompleteCallback(
      +                          ((void*)0),((void*)0));
  7329  0573  3000               	movlw	0
  7330  0574  0020               	movlb	0	; select bank0
  7331  0575  00BE               	movwf	I2C1_SetDataCompleteCallback@cb
  7332  0576  00BF               	movwf	I2C1_SetDataCompleteCallback@cb+1
  7333  0577  01C0               	clrf	I2C1_SetDataCompleteCallback@ptr
  7334  0578  3185  25B7  3185   	fcall	_I2C1_SetDataCompleteCallback
  7335  057B                     l3390:
  7336                           
  7337                           ;mcc_generated_files/drivers/i2c_simple_master.c: 155:     return I2C1_CONTINUE;
  7338  057B  3004               	movlw	4
  7339  057C                     l759:
  7340  057C  0008               	return
  7341  057D                     __end_of_wr2RegCompleteHandler@i2c_simple_master$F1282:
  7342                           
  7343                           	psect	text57
  7344  05B7                     __ptext57:	
  7345 ;; *************** function _I2C1_SetDataCompleteCallback *****************
  7346 ;; Defined at:
  7347 ;;		line 273 in file "mcc_generated_files/i2c1_master.c"
  7348 ;; Parameters:    Size  Location     Type
  7349 ;;  cb              2    1[BANK0 ] PTR FTN(PTR void ,)enum 
  7350 ;;		 -> rdBlkRegCompleteHandler@i2c_simple_master$F1288(1), wr2RegCompleteHandler@i2c_simple_master$F1282(1), rd2RegComp
      +leteHandler@i2c_simple_master$F1276(1), rd1RegCompleteHandler@i2c_simple_master$F1268(1), 
  7351 ;;		 -> wr1RegCompleteHandler@i2c_simple_master$F1258(1), rdBlkRegCompleteHandler(1), wr2RegCompleteHandler(1), wr1RegCo
      +mpleteHandler(1), 
  7352 ;;		 -> rd2RegCompleteHandler(1), rd1RegCompleteHandler(1), Absolute function(1), 
  7353 ;;  ptr             1    3[BANK0 ] PTR void 
  7354 ;;		 -> i2c_readDataBlock@d(3), i2c_write2ByteRegister@data(2), i2c_read2ByteRegister@result(2), i2c_read1ByteRegister@d
      +2(1), 
  7355 ;;		 -> i2c_write1ByteRegister@data(1), I2C1_ReadDataBlock@bufferBlock(3), I2C1_Write2ByteRegister@data(2), I2C1_Write1B
      +yteRegister@data(1), 
  7356 ;;		 -> I2C1_Read2ByteRegister@returnValue(2), NULL(0), I2C1_Read1ByteRegister@returnValue(1), 
  7357 ;; Auto vars:     Size  Location     Type
  7358 ;;		None
  7359 ;; Return value:  Size  Location     Type
  7360 ;;                  1    wreg      void 
  7361 ;; Registers used:
  7362 ;;		wreg, fsr1l, fsr1h, status,2, status,0, pclath, cstack
  7363 ;; Tracked objects:
  7364 ;;		On entry : 0/0
  7365 ;;		On exit  : 0/0
  7366 ;;		Unchanged: 0/0
  7367 ;; Data sizes:     COMMON   BANK0   BANK1   BANK2   BANK3   BANK4   BANK5   BANK6   BANK7   BANK8   BANK9  BANK10  BANK1
      +1  BANK12
  7368 ;;      Params:         0       3       0       0       0       0       0       0       0       0       0       0       
      +0       0
  7369 ;;      Locals:         0       0       0       0       0       0       0       0       0       0       0       0       
      +0       0
  7370 ;;      Temps:          0       1       0       0       0       0       0       0       0       0       0       0       
      +0       0
  7371 ;;      Totals:         0       4       0       0       0       0       0       0       0       0       0       0       
      +0       0
  7372 ;;Total ram usage:        4 bytes
  7373 ;; Hardware stack levels used: 1
  7374 ;; Hardware stack levels required when called: 6
  7375 ;; This function calls:
  7376 ;;		_I2C1_SetCallback
  7377 ;; This function is called by:
  7378 ;;		_I2C1_Read1ByteRegister
  7379 ;;		_I2C1_Write1ByteRegister
  7380 ;;		_rd1RegCompleteHandler
  7381 ;;		_rd2RegCompleteHandler
  7382 ;;		_wr1RegCompleteHandler
  7383 ;;		_wr2RegCompleteHandler
  7384 ;;		_rdBlkRegCompleteHandler
  7385 ;;		_wr1RegCompleteHandler@i2c_simple_master$F1258
  7386 ;;		_rd1RegCompleteHandler@i2c_simple_master$F1268
  7387 ;;		_rd2RegCompleteHandler@i2c_simple_master$F1276
  7388 ;;		_wr2RegCompleteHandler@i2c_simple_master$F1282
  7389 ;;		_rdBlkRegCompleteHandler@i2c_simple_master$F1288
  7390 ;;		_I2C1_Read2ByteRegister
  7391 ;;		_I2C1_Write2ByteRegister
  7392 ;;		_I2C1_ReadDataBlock
  7393 ;;		_i2c_write1ByteRegister
  7394 ;;		_i2c_read1ByteRegister
  7395 ;;		_i2c_read2ByteRegister
  7396 ;;		_i2c_write2ByteRegister
  7397 ;;		_i2c_readDataBlock
  7398 ;; This function uses a non-reentrant model
  7399 ;;
  7400                           
  7401                           
  7402                           ;psect for function _I2C1_SetDataCompleteCallback
  7403  05B7                     _I2C1_SetDataCompleteCallback:
  7404  05B7                     l3322:	
  7405                           ;incstack = 0
  7406                           ; Regs used in _I2C1_SetDataCompleteCallback: [wreg+fsr1l+fsr1h+status,2+status,0+pclath
      +                          +cstack]
  7407                           
  7408                           
  7409                           ;mcc_generated_files/i2c1_master.c: 273: void I2C1_SetDataCompleteCallback(i2c1_callback
      +                          _t cb, void *ptr);mcc_generated_files/i2c1_master.c: 274: {;mcc_generated_files/i2c1_mas
      +                          ter.c: 275:     I2C1_SetCallback(I2C1_DATA_COMPLETE, cb, ptr);
  7410  05B7  0020               	movlb	0	; select bank0
  7411  05B8  083F               	movf	I2C1_SetDataCompleteCallback@cb+1,w
  7412  05B9  00F5               	movwf	I2C1_SetCallback@cb+1
  7413  05BA  083E               	movf	I2C1_SetDataCompleteCallback@cb,w
  7414  05BB  00F4               	movwf	I2C1_SetCallback@cb
  7415  05BC  0840               	movf	I2C1_SetDataCompleteCallback@ptr,w
  7416  05BD  00C1               	movwf	??_I2C1_SetDataCompleteCallback
  7417  05BE  0841               	movf	??_I2C1_SetDataCompleteCallback,w
  7418  05BF  00F6               	movwf	I2C1_SetCallback@ptr
  7419  05C0  3000               	movlw	0
  7420  05C1  3183  2343  3185   	fcall	_I2C1_SetCallback
  7421  05C4                     l494:
  7422  05C4  0008               	return
  7423  05C5                     __end_of_I2C1_SetDataCompleteCallback:
  7424                           
  7425                           	psect	text58
  7426  0343                     __ptext58:	
  7427 ;; *************** function _I2C1_SetCallback *****************
  7428 ;; Defined at:
  7429 ;;		line 298 in file "mcc_generated_files/i2c1_master.c"
  7430 ;; Parameters:    Size  Location     Type
  7431 ;;  idx             1    wreg     enum E3027
  7432 ;;  cb              2    4[COMMON] PTR FTN(PTR void ,)enum 
  7433 ;;		 -> rdBlkRegCompleteHandler@i2c_simple_master$F1288(1), wr2RegCompleteHandler@i2c_simple_master$F1282(1), rd2RegComp
      +leteHandler@i2c_simple_master$F1276(1), rd1RegCompleteHandler@i2c_simple_master$F1268(1), 
  7434 ;;		 -> wr1RegCompleteHandler@i2c_simple_master$F1258(1), rdBlkRegCompleteHandler(1), wr2RegCompleteHandler(1), wr1RegCo
      +mpleteHandler(1), 
  7435 ;;		 -> rd2RegCompleteHandler(1), rd1RegCompleteHandler(1), Absolute function(1), 
  7436 ;;  ptr             1    6[COMMON] PTR void 
  7437 ;;		 -> i2c_readDataBlock@d(3), i2c_write2ByteRegister@data(2), i2c_read2ByteRegister@result(2), i2c_read1ByteRegister@d
      +2(1), 
  7438 ;;		 -> i2c_write1ByteRegister@data(1), I2C1_ReadDataBlock@bufferBlock(3), I2C1_Write2ByteRegister@data(2), I2C1_Write1B
      +yteRegister@data(1), 
  7439 ;;		 -> I2C1_Read2ByteRegister@returnValue(2), NULL(0), I2C1_Read1ByteRegister@returnValue(1), 
  7440 ;; Auto vars:     Size  Location     Type
  7441 ;;  idx             1    0[BANK0 ] enum E3027
  7442 ;; Return value:  Size  Location     Type
  7443 ;;                  1    wreg      void 
  7444 ;; Registers used:
  7445 ;;		wreg, fsr1l, fsr1h, status,2, status,0
  7446 ;; Tracked objects:
  7447 ;;		On entry : 0/0
  7448 ;;		On exit  : 0/0
  7449 ;;		Unchanged: 0/0
  7450 ;; Data sizes:     COMMON   BANK0   BANK1   BANK2   BANK3   BANK4   BANK5   BANK6   BANK7   BANK8   BANK9  BANK10  BANK1
      +1  BANK12
  7451 ;;      Params:         3       0       0       0       0       0       0       0       0       0       0       0       
      +0       0
  7452 ;;      Locals:         0       1       0       0       0       0       0       0       0       0       0       0       
      +0       0
  7453 ;;      Temps:          1       0       0       0       0       0       0       0       0       0       0       0       
      +0       0
  7454 ;;      Totals:         4       1       0       0       0       0       0       0       0       0       0       0       
      +0       0
  7455 ;;Total ram usage:        5 bytes
  7456 ;; Hardware stack levels used: 1
  7457 ;; Hardware stack levels required when called: 5
  7458 ;; This function calls:
  7459 ;;		Nothing
  7460 ;; This function is called by:
  7461 ;;		_I2C1_SetDataCompleteCallback
  7462 ;;		_I2C1_SetAddressNackCallback
  7463 ;;		_I2C1_SetWriteCollisionCallback
  7464 ;;		_I2C1_SetDataNackCallback
  7465 ;;		_I2C1_SetTimeoutCallback
  7466 ;; This function uses a non-reentrant model
  7467 ;;
  7468                           
  7469                           
  7470                           ;psect for function _I2C1_SetCallback
  7471  0343                     _I2C1_SetCallback:
  7472                           
  7473                           ;incstack = 0
  7474                           ; Regs used in _I2C1_SetCallback: [wreg+fsr1l+fsr1h+status,2+status,0]
  7475                           ;I2C1_SetCallback@idx stored from wreg
  7476  0343  0020               	movlb	0	; select bank0
  7477  0344  00BD               	movwf	I2C1_SetCallback@idx
  7478  0345                     l3316:
  7479                           
  7480                           ;mcc_generated_files/i2c1_master.c: 298: static void I2C1_SetCallback(i2c1_callbackIndex
      +                          _t idx, i2c1_callback_t cb, void *ptr);mcc_generated_files/i2c1_master.c: 299: {;mcc_gen
      +                          erated_files/i2c1_master.c: 300:     if(cb)
  7481  0345  0874               	movf	I2C1_SetCallback@cb,w
  7482  0346  0475               	iorwf	I2C1_SetCallback@cb+1,w
  7483  0347  1903               	btfsc	3,2
  7484  0348  2B4A               	goto	u1281
  7485  0349  2B4B               	goto	u1280
  7486  034A                     u1281:
  7487  034A  2B5C               	goto	l3320
  7488  034B                     u1280:
  7489  034B                     l3318:
  7490                           
  7491                           ;mcc_generated_files/i2c1_master.c: 301:     {;mcc_generated_files/i2c1_master.c: 302:  
      +                                 I2C1_Status.callbackTable[idx] = cb;
  7492  034B  353D               	lslf	I2C1_SetCallback@idx,w
  7493  034C  3E20               	addlw	(low (_I2C1_Status| 0))& (0+255)
  7494  034D  0086               	movwf	6
  7495  034E  0187               	clrf	7
  7496  034F  0874               	movf	I2C1_SetCallback@cb,w
  7497  0350  3FC0               	movwi [0]fsr1
  7498  0351  0875               	movf	I2C1_SetCallback@cb+1,w
  7499  0352  3FC1               	movwi [1]fsr1
  7500                           
  7501                           ;mcc_generated_files/i2c1_master.c: 303:         I2C1_Status.callbackPayload[idx] = ptr;
  7502  0353  0876               	movf	I2C1_SetCallback@ptr,w
  7503  0354  00F7               	movwf	??_I2C1_SetCallback
  7504  0355  083D               	movf	I2C1_SetCallback@idx,w
  7505  0356  3E2C               	addlw	(low ((_I2C1_Status| 0+12)))& (0+255)
  7506  0357  0086               	movwf	6
  7507  0358  0187               	clrf	7
  7508  0359  0877               	movf	??_I2C1_SetCallback,w
  7509  035A  0081               	movwf	1
  7510                           
  7511                           ;mcc_generated_files/i2c1_master.c: 304:     }
  7512  035B  2B69               	goto	l511
  7513  035C                     l3320:
  7514                           
  7515                           ;mcc_generated_files/i2c1_master.c: 306:     {;mcc_generated_files/i2c1_master.c: 307:  
      +                                 I2C1_Status.callbackTable[idx] = I2C1_CallbackReturnStop;
  7516  035C  353D               	lslf	I2C1_SetCallback@idx,w
  7517  035D  3E20               	addlw	(low (_I2C1_Status| 0))& (0+255)
  7518  035E  0086               	movwf	6
  7519  035F  0187               	clrf	7
  7520  0360  30AC               	movlw	low _I2C1_CallbackReturnStop
  7521  0361  3FC0               	movwi [0]fsr1
  7522  0362  3006               	movlw	high _I2C1_CallbackReturnStop
  7523  0363  3FC1               	movwi [1]fsr1
  7524                           
  7525                           ;mcc_generated_files/i2c1_master.c: 308:         I2C1_Status.callbackPayload[idx] = ((vo
      +                          id*)0);
  7526  0364  083D               	movf	I2C1_SetCallback@idx,w
  7527  0365  3E2C               	addlw	(low ((_I2C1_Status| 0+12)))& (0+255)
  7528  0366  0086               	movwf	6
  7529  0367  0187               	clrf	7
  7530  0368  0181               	clrf	1
  7531  0369                     l511:
  7532  0369  0008               	return
  7533  036A                     __end_of_I2C1_SetCallback:
  7534                           
  7535                           	psect	text59
  7536  057D                     __ptext59:	
  7537 ;; *************** function _I2C1_SetBuffer *****************
  7538 ;; Defined at:
  7539 ;;		line 263 in file "mcc_generated_files/i2c1_master.c"
  7540 ;; Parameters:    Size  Location     Type
  7541 ;;  buffer          1    wreg     PTR void 
  7542 ;;		 -> i2c_readDataBlock@reg(1), i2c_readDataBlock@d(3), i2c_write2ByteRegister@reg(1), i2c_write2ByteRegister@data(2),
      + 
  7543 ;;		 -> i2c_read2ByteRegister@reg(1), i2c_read2ByteRegister@result(2), i2c_read1ByteRegister@reg(1), i2c_read1ByteRegist
      +er@d2(1), 
  7544 ;;		 -> i2c_write1ByteRegister@reg(1), i2c_write1ByteRegister@data(1), I2C1_ReadDataBlock@reg(1), I2C1_ReadDataBlock@buf
      +ferBlock(3), 
  7545 ;;		 -> I2C1_Write2ByteRegister@reg(1), I2C1_Write2ByteRegister@data(2), I2C1_Write1ByteRegister@reg(1), I2C1_Write1Byte
      +Register@data(1), 
  7546 ;;		 -> I2C1_Read2ByteRegister@reg(1), I2C1_Read2ByteRegister@returnValue(2), NULL(0), I2C1_Read1ByteRegister@reg(1), 
  7547 ;;		 -> I2C1_Read1ByteRegister@returnValue(1), 
  7548 ;;  bufferSize      2    4[COMMON] unsigned int 
  7549 ;; Auto vars:     Size  Location     Type
  7550 ;;  buffer          1    7[COMMON] PTR void 
  7551 ;;		 -> i2c_readDataBlock@reg(1), i2c_readDataBlock@d(3), i2c_write2ByteRegister@reg(1), i2c_write2ByteRegister@data(2),
      + 
  7552 ;;		 -> i2c_read2ByteRegister@reg(1), i2c_read2ByteRegister@result(2), i2c_read1ByteRegister@reg(1), i2c_read1ByteRegist
      +er@d2(1), 
  7553 ;;		 -> i2c_write1ByteRegister@reg(1), i2c_write1ByteRegister@data(1), I2C1_ReadDataBlock@reg(1), I2C1_ReadDataBlock@buf
      +ferBlock(3), 
  7554 ;;		 -> I2C1_Write2ByteRegister@reg(1), I2C1_Write2ByteRegister@data(2), I2C1_Write1ByteRegister@reg(1), I2C1_Write1Byte
      +Register@data(1), 
  7555 ;;		 -> I2C1_Read2ByteRegister@reg(1), I2C1_Read2ByteRegister@returnValue(2), NULL(0), I2C1_Read1ByteRegister@reg(1), 
  7556 ;;		 -> I2C1_Read1ByteRegister@returnValue(1), 
  7557 ;; Return value:  Size  Location     Type
  7558 ;;                  1    wreg      void 
  7559 ;; Registers used:
  7560 ;;		wreg
  7561 ;; Tracked objects:
  7562 ;;		On entry : 0/0
  7563 ;;		On exit  : 0/0
  7564 ;;		Unchanged: 0/0
  7565 ;; Data sizes:     COMMON   BANK0   BANK1   BANK2   BANK3   BANK4   BANK5   BANK6   BANK7   BANK8   BANK9  BANK10  BANK1
      +1  BANK12
  7566 ;;      Params:         2       0       0       0       0       0       0       0       0       0       0       0       
      +0       0
  7567 ;;      Locals:         1       0       0       0       0       0       0       0       0       0       0       0       
      +0       0
  7568 ;;      Temps:          1       0       0       0       0       0       0       0       0       0       0       0       
      +0       0
  7569 ;;      Totals:         4       0       0       0       0       0       0       0       0       0       0       0       
      +0       0
  7570 ;;Total ram usage:        4 bytes
  7571 ;; Hardware stack levels used: 1
  7572 ;; Hardware stack levels required when called: 5
  7573 ;; This function calls:
  7574 ;;		Nothing
  7575 ;; This function is called by:
  7576 ;;		_I2C1_Read1ByteRegister
  7577 ;;		_I2C1_Write1ByteRegister
  7578 ;;		_rd1RegCompleteHandler
  7579 ;;		_rd2RegCompleteHandler
  7580 ;;		_wr1RegCompleteHandler
  7581 ;;		_wr2RegCompleteHandler
  7582 ;;		_rdBlkRegCompleteHandler
  7583 ;;		_wr1RegCompleteHandler@i2c_simple_master$F1258
  7584 ;;		_rd1RegCompleteHandler@i2c_simple_master$F1268
  7585 ;;		_rd2RegCompleteHandler@i2c_simple_master$F1276
  7586 ;;		_wr2RegCompleteHandler@i2c_simple_master$F1282
  7587 ;;		_rdBlkRegCompleteHandler@i2c_simple_master$F1288
  7588 ;;		_I2C1_Read2ByteRegister
  7589 ;;		_I2C1_Write2ByteRegister
  7590 ;;		_I2C1_WriteNBytes
  7591 ;;		_I2C1_ReadNBytes
  7592 ;;		_I2C1_ReadDataBlock
  7593 ;;		_i2c_write1ByteRegister
  7594 ;;		_i2c_writeNBytes
  7595 ;;		_i2c_read1ByteRegister
  7596 ;;		_i2c_read2ByteRegister
  7597 ;;		_i2c_write2ByteRegister
  7598 ;;		_i2c_readDataBlock
  7599 ;;		_i2c_readNBytes
  7600 ;; This function uses a non-reentrant model
  7601 ;;
  7602                           
  7603                           
  7604                           ;psect for function _I2C1_SetBuffer
  7605  057D                     _I2C1_SetBuffer:
  7606                           
  7607                           ;incstack = 0
  7608                           ; Regs used in _I2C1_SetBuffer: [wreg]
  7609                           ;I2C1_SetBuffer@buffer stored from wreg
  7610  057D  00F7               	movwf	I2C1_SetBuffer@buffer
  7611  057E                     l2394:
  7612                           
  7613                           ;mcc_generated_files/i2c1_master.c: 263: void I2C1_SetBuffer(void *buffer, size_t buffer
      +                          Size);mcc_generated_files/i2c1_master.c: 264: {;mcc_generated_files/i2c1_master.c: 265: 
      +                              if(I2C1_Status.bufferFree)
  7614  057E  0020               	movlb	0	; select bank0
  7615  057F  1DBC               	btfss	_I2C1_Status+28,3
  7616  0580  2D82               	goto	u671
  7617  0581  2D83               	goto	u670
  7618  0582                     u671:
  7619  0582  2D8C               	goto	l491
  7620  0583                     u670:
  7621  0583                     l2396:
  7622                           
  7623                           ;mcc_generated_files/i2c1_master.c: 266:     {;mcc_generated_files/i2c1_master.c: 267:  
      +                                 I2C1_Status.data_ptr = buffer;
  7624  0583  0877               	movf	I2C1_SetBuffer@buffer,w
  7625  0584  00F6               	movwf	??_I2C1_SetBuffer
  7626  0585  0876               	movf	??_I2C1_SetBuffer,w
  7627  0586  00B7               	movwf	low ((_I2C1_Status| 0+23))
  7628                           
  7629                           ;mcc_generated_files/i2c1_master.c: 268:         I2C1_Status.data_length = bufferSize;
  7630  0587  0875               	movf	I2C1_SetBuffer@bufferSize+1,w
  7631  0588  00B9               	movwf	_I2C1_Status+25
  7632  0589  0874               	movf	I2C1_SetBuffer@bufferSize,w
  7633  058A  00B8               	movwf	_I2C1_Status+24
  7634  058B                     l2398:
  7635                           
  7636                           ;mcc_generated_files/i2c1_master.c: 269:         I2C1_Status.bufferFree = 0;
  7637  058B  11BC               	bcf	_I2C1_Status+28,3
  7638  058C                     l491:
  7639  058C  0008               	return
  7640  058D                     __end_of_I2C1_SetBuffer:
  7641                           
  7642                           	psect	text60
  7643  0698                     __ptext60:	
  7644 ;; *************** function _I2C1_MasterStop *****************
  7645 ;; Defined at:
  7646 ;;		line 593 in file "mcc_generated_files/i2c1_master.c"
  7647 ;; Parameters:    Size  Location     Type
  7648 ;;		None
  7649 ;; Auto vars:     Size  Location     Type
  7650 ;;		None
  7651 ;; Return value:  Size  Location     Type
  7652 ;;                  1    wreg      void 
  7653 ;; Registers used:
  7654 ;;		None
  7655 ;; Tracked objects:
  7656 ;;		On entry : 0/0
  7657 ;;		On exit  : 0/0
  7658 ;;		Unchanged: 0/0
  7659 ;; Data sizes:     COMMON   BANK0   BANK1   BANK2   BANK3   BANK4   BANK5   BANK6   BANK7   BANK8   BANK9  BANK10  BANK1
      +1  BANK12
  7660 ;;      Params:         0       0       0       0       0       0       0       0       0       0       0       0       
      +0       0
  7661 ;;      Locals:         0       0       0       0       0       0       0       0       0       0       0       0       
      +0       0
  7662 ;;      Temps:          0       0       0       0       0       0       0       0       0       0       0       0       
      +0       0
  7663 ;;      Totals:         0       0       0       0       0       0       0       0       0       0       0       0       
      +0       0
  7664 ;;Total ram usage:        0 bytes
  7665 ;; Hardware stack levels used: 1
  7666 ;; Hardware stack levels required when called: 5
  7667 ;; This function calls:
  7668 ;;		Nothing
  7669 ;; This function is called by:
  7670 ;;		_I2C1_DO_SEND_STOP
  7671 ;; This function uses a non-reentrant model
  7672 ;;
  7673                           
  7674                           
  7675                           ;psect for function _I2C1_MasterStop
  7676  0698                     _I2C1_MasterStop:
  7677  0698                     l2402:	
  7678                           ;incstack = 0
  7679                           ; Regs used in _I2C1_MasterStop: []
  7680                           
  7681                           
  7682                           ;mcc_generated_files/i2c1_master.c: 595:     SSP1CON2bits.PEN = 1;
  7683  0698  0024               	movlb	4	; select bank4
  7684  0699  1516               	bsf	22,2	;volatile
  7685  069A                     l657:
  7686  069A  0008               	return
  7687  069B                     __end_of_I2C1_MasterStop:
  7688                           
  7689                           	psect	text61
  7690  069B                     __ptext61:	
  7691 ;; *************** function _I2C1_MasterEnableRestart *****************
  7692 ;; Defined at:
  7693 ;;		line 573 in file "mcc_generated_files/i2c1_master.c"
  7694 ;; Parameters:    Size  Location     Type
  7695 ;;		None
  7696 ;; Auto vars:     Size  Location     Type
  7697 ;;		None
  7698 ;; Return value:  Size  Location     Type
  7699 ;;                  1    wreg      void 
  7700 ;; Registers used:
  7701 ;;		None
  7702 ;; Tracked objects:
  7703 ;;		On entry : 0/0
  7704 ;;		On exit  : 0/0
  7705 ;;		Unchanged: 0/0
  7706 ;; Data sizes:     COMMON   BANK0   BANK1   BANK2   BANK3   BANK4   BANK5   BANK6   BANK7   BANK8   BANK9  BANK10  BANK1
      +1  BANK12
  7707 ;;      Params:         0       0       0       0       0       0       0       0       0       0       0       0       
      +0       0
  7708 ;;      Locals:         0       0       0       0       0       0       0       0       0       0       0       0       
      +0       0
  7709 ;;      Temps:          0       0       0       0       0       0       0       0       0       0       0       0       
      +0       0
  7710 ;;      Totals:         0       0       0       0       0       0       0       0       0       0       0       0       
      +0       0
  7711 ;;Total ram usage:        0 bytes
  7712 ;; Hardware stack levels used: 1
  7713 ;; Hardware stack levels required when called: 5
  7714 ;; This function calls:
  7715 ;;		Nothing
  7716 ;; This function is called by:
  7717 ;;		_I2C1_DO_SEND_RESTART_READ
  7718 ;;		_I2C1_DO_SEND_RESTART_WRITE
  7719 ;;		_I2C1_DO_SEND_RESTART
  7720 ;;		_I2C1_DO_RX_EMPTY
  7721 ;; This function uses a non-reentrant model
  7722 ;;
  7723                           
  7724                           
  7725                           ;psect for function _I2C1_MasterEnableRestart
  7726  069B                     _I2C1_MasterEnableRestart:
  7727  069B                     l2400:	
  7728                           ;incstack = 0
  7729                           ; Regs used in _I2C1_MasterEnableRestart: []
  7730                           
  7731                           
  7732                           ;mcc_generated_files/i2c1_master.c: 575:     SSP1CON2bits.RSEN = 1;
  7733  069B  0024               	movlb	4	; select bank4
  7734  069C  1496               	bsf	22,1	;volatile
  7735  069D                     l645:
  7736  069D  0008               	return
  7737  069E                     __end_of_I2C1_MasterEnableRestart:
  7738                           
  7739                           	psect	text62
  7740  069E                     __ptext62:	
  7741 ;; *************** function _I2C1_MasterStart *****************
  7742 ;; Defined at:
  7743 ;;		line 588 in file "mcc_generated_files/i2c1_master.c"
  7744 ;; Parameters:    Size  Location     Type
  7745 ;;		None
  7746 ;; Auto vars:     Size  Location     Type
  7747 ;;		None
  7748 ;; Return value:  Size  Location     Type
  7749 ;;                  1    wreg      void 
  7750 ;; Registers used:
  7751 ;;		None
  7752 ;; Tracked objects:
  7753 ;;		On entry : 0/0
  7754 ;;		On exit  : 0/0
  7755 ;;		Unchanged: 0/0
  7756 ;; Data sizes:     COMMON   BANK0   BANK1   BANK2   BANK3   BANK4   BANK5   BANK6   BANK7   BANK8   BANK9  BANK10  BANK1
      +1  BANK12
  7757 ;;      Params:         0       0       0       0       0       0       0       0       0       0       0       0       
      +0       0
  7758 ;;      Locals:         0       0       0       0       0       0       0       0       0       0       0       0       
      +0       0
  7759 ;;      Temps:          0       0       0       0       0       0       0       0       0       0       0       0       
      +0       0
  7760 ;;      Totals:         0       0       0       0       0       0       0       0       0       0       0       0       
      +0       0
  7761 ;;Total ram usage:        0 bytes
  7762 ;; Hardware stack levels used: 1
  7763 ;; Hardware stack levels required when called: 5
  7764 ;; This function calls:
  7765 ;;		Nothing
  7766 ;; This function is called by:
  7767 ;;		_I2C1_MasterOperation
  7768 ;; This function uses a non-reentrant model
  7769 ;;
  7770                           
  7771                           
  7772                           ;psect for function _I2C1_MasterStart
  7773  069E                     _I2C1_MasterStart:
  7774  069E                     l2710:	
  7775                           ;incstack = 0
  7776                           ; Regs used in _I2C1_MasterStart: []
  7777                           
  7778                           
  7779                           ;mcc_generated_files/i2c1_master.c: 590:     SSP1CON2bits.SEN = 1;
  7780  069E  0024               	movlb	4	; select bank4
  7781  069F  1416               	bsf	22,0	;volatile
  7782  06A0                     l654:
  7783  06A0  0008               	return
  7784  06A1                     __end_of_I2C1_MasterStart:
  7785                           
  7786                           	psect	text63
  7787  03C6                     __ptext63:	
  7788 ;; *************** function _I2C1_Close *****************
  7789 ;; Defined at:
  7790 ;;		line 209 in file "mcc_generated_files/i2c1_master.c"
  7791 ;; Parameters:    Size  Location     Type
  7792 ;;		None
  7793 ;; Auto vars:     Size  Location     Type
  7794 ;;  returnValue     1    5[COMMON] enum E355
  7795 ;; Return value:  Size  Location     Type
  7796 ;;                  1    wreg      enum E355
  7797 ;; Registers used:
  7798 ;;		wreg, status,2, status,0, pclath, cstack
  7799 ;; Tracked objects:
  7800 ;;		On entry : 0/0
  7801 ;;		On exit  : 0/0
  7802 ;;		Unchanged: 0/0
  7803 ;; Data sizes:     COMMON   BANK0   BANK1   BANK2   BANK3   BANK4   BANK5   BANK6   BANK7   BANK8   BANK9  BANK10  BANK1
      +1  BANK12
  7804 ;;      Params:         0       0       0       0       0       0       0       0       0       0       0       0       
      +0       0
  7805 ;;      Locals:         1       0       0       0       0       0       0       0       0       0       0       0       
      +0       0
  7806 ;;      Temps:          1       0       0       0       0       0       0       0       0       0       0       0       
      +0       0
  7807 ;;      Totals:         2       0       0       0       0       0       0       0       0       0       0       0       
      +0       0
  7808 ;;Total ram usage:        2 bytes
  7809 ;; Hardware stack levels used: 1
  7810 ;; Hardware stack levels required when called: 6
  7811 ;; This function calls:
  7812 ;;		_I2C1_MasterClearIrq
  7813 ;;		_I2C1_MasterClose
  7814 ;;		_I2C1_MasterDisableIrq
  7815 ;; This function is called by:
  7816 ;;		_I2C1_Read1ByteRegister
  7817 ;;		_I2C1_Write1ByteRegister
  7818 ;;		_I2C1_Read2ByteRegister
  7819 ;;		_I2C1_Write2ByteRegister
  7820 ;;		_I2C1_WriteNBytes
  7821 ;;		_I2C1_ReadNBytes
  7822 ;;		_I2C1_ReadDataBlock
  7823 ;;		_i2c_write1ByteRegister
  7824 ;;		_i2c_writeNBytes
  7825 ;;		_i2c_read1ByteRegister
  7826 ;;		_i2c_read2ByteRegister
  7827 ;;		_i2c_write2ByteRegister
  7828 ;;		_i2c_readDataBlock
  7829 ;;		_i2c_readNBytes
  7830 ;; This function uses a non-reentrant model
  7831 ;;
  7832                           
  7833                           
  7834                           ;psect for function _I2C1_Close
  7835  03C6                     _I2C1_Close:
  7836  03C6                     l2906:	
  7837                           ;incstack = 0
  7838                           ; Regs used in _I2C1_Close: [wreg+status,2+status,0+pclath+cstack]
  7839                           
  7840                           
  7841                           ;mcc_generated_files/i2c1_master.c: 211:     i2c1_error_t returnValue = I2C1_BUSY;
  7842  03C6  01F5               	clrf	I2C1_Close@returnValue
  7843  03C7  0AF5               	incf	I2C1_Close@returnValue,f
  7844                           
  7845                           ;mcc_generated_files/i2c1_master.c: 212:     if(!I2C1_Status.busy)
  7846  03C8  0020               	movlb	0	; select bank0
  7847  03C9  18BC               	btfsc	_I2C1_Status+28,1
  7848  03CA  2BCC               	goto	u851
  7849  03CB  2BCD               	goto	u850
  7850  03CC                     u851:
  7851  03CC  2BE0               	goto	l2920
  7852  03CD                     u850:
  7853  03CD                     l2908:
  7854                           
  7855                           ;mcc_generated_files/i2c1_master.c: 213:     {;mcc_generated_files/i2c1_master.c: 214:  
      +                                 I2C1_Status.inUse = 0;
  7856  03CD  113C               	bcf	_I2C1_Status+28,2
  7857  03CE                     l2910:
  7858                           
  7859                           ;mcc_generated_files/i2c1_master.c: 215:         I2C1_Status.address = 0xff;
  7860  03CE  30FF               	movlw	255
  7861  03CF  00F4               	movwf	??_I2C1_Close
  7862  03D0  0874               	movf	??_I2C1_Close,w
  7863  03D1  00B6               	movwf	_I2C1_Status+22
  7864  03D2                     l2912:
  7865                           
  7866                           ;mcc_generated_files/i2c1_master.c: 216:         I2C1_MasterClearIrq();
  7867  03D2  3186  26A7  3183   	fcall	_I2C1_MasterClearIrq
  7868  03D5                     l2914:
  7869                           
  7870                           ;mcc_generated_files/i2c1_master.c: 217:         I2C1_MasterDisableIrq();
  7871  03D5  3186  26A1  3183   	fcall	_I2C1_MasterDisableIrq
  7872  03D8                     l2916:
  7873                           
  7874                           ;mcc_generated_files/i2c1_master.c: 218:         I2C1_MasterClose();
  7875  03D8  3186  26A4  3183   	fcall	_I2C1_MasterClose
  7876  03DB                     l2918:
  7877                           
  7878                           ;mcc_generated_files/i2c1_master.c: 219:         returnValue = I2C1_Status.error;
  7879  03DB  0020               	movlb	0	; select bank0
  7880  03DC  083B               	movf	_I2C1_Status+27,w
  7881  03DD  00F4               	movwf	??_I2C1_Close
  7882  03DE  0874               	movf	??_I2C1_Close,w
  7883  03DF  00F5               	movwf	I2C1_Close@returnValue
  7884  03E0                     l2920:
  7885                           
  7886                           ;mcc_generated_files/i2c1_master.c: 221:     return returnValue;
  7887  03E0  0875               	movf	I2C1_Close@returnValue,w
  7888  03E1                     l472:
  7889  03E1  0008               	return
  7890  03E2                     __end_of_I2C1_Close:
  7891                           
  7892                           	psect	text64
  7893  06A1                     __ptext64:	
  7894 ;; *************** function _I2C1_MasterDisableIrq *****************
  7895 ;; Defined at:
  7896 ;;		line 635 in file "mcc_generated_files/i2c1_master.c"
  7897 ;; Parameters:    Size  Location     Type
  7898 ;;		None
  7899 ;; Auto vars:     Size  Location     Type
  7900 ;;		None
  7901 ;; Return value:  Size  Location     Type
  7902 ;;                  1    wreg      void 
  7903 ;; Registers used:
  7904 ;;		None
  7905 ;; Tracked objects:
  7906 ;;		On entry : 0/0
  7907 ;;		On exit  : 0/0
  7908 ;;		Unchanged: 0/0
  7909 ;; Data sizes:     COMMON   BANK0   BANK1   BANK2   BANK3   BANK4   BANK5   BANK6   BANK7   BANK8   BANK9  BANK10  BANK1
      +1  BANK12
  7910 ;;      Params:         0       0       0       0       0       0       0       0       0       0       0       0       
      +0       0
  7911 ;;      Locals:         0       0       0       0       0       0       0       0       0       0       0       0       
      +0       0
  7912 ;;      Temps:          0       0       0       0       0       0       0       0       0       0       0       0       
      +0       0
  7913 ;;      Totals:         0       0       0       0       0       0       0       0       0       0       0       0       
      +0       0
  7914 ;;Total ram usage:        0 bytes
  7915 ;; Hardware stack levels used: 1
  7916 ;; Hardware stack levels required when called: 5
  7917 ;; This function calls:
  7918 ;;		Nothing
  7919 ;; This function is called by:
  7920 ;;		_I2C1_Close
  7921 ;;		_I2C1_SetTimeOut
  7922 ;; This function uses a non-reentrant model
  7923 ;;
  7924                           
  7925                           
  7926                           ;psect for function _I2C1_MasterDisableIrq
  7927  06A1                     _I2C1_MasterDisableIrq:
  7928  06A1                     l2748:	
  7929                           ;incstack = 0
  7930                           ; Regs used in _I2C1_MasterDisableIrq: []
  7931                           
  7932                           
  7933                           ;mcc_generated_files/i2c1_master.c: 637:     PIE1bits.SSP1IE = 0;
  7934  06A1  0021               	movlb	1	; select bank1
  7935  06A2  1191               	bcf	17,3	;volatile
  7936  06A3                     l681:
  7937  06A3  0008               	return
  7938  06A4                     __end_of_I2C1_MasterDisableIrq:
  7939                           
  7940                           	psect	text65
  7941  06A4                     __ptext65:	
  7942 ;; *************** function _I2C1_MasterClose *****************
  7943 ;; Defined at:
  7944 ;;		line 557 in file "mcc_generated_files/i2c1_master.c"
  7945 ;; Parameters:    Size  Location     Type
  7946 ;;		None
  7947 ;; Auto vars:     Size  Location     Type
  7948 ;;		None
  7949 ;; Return value:  Size  Location     Type
  7950 ;;                  1    wreg      void 
  7951 ;; Registers used:
  7952 ;;		None
  7953 ;; Tracked objects:
  7954 ;;		On entry : 0/0
  7955 ;;		On exit  : 0/0
  7956 ;;		Unchanged: 0/0
  7957 ;; Data sizes:     COMMON   BANK0   BANK1   BANK2   BANK3   BANK4   BANK5   BANK6   BANK7   BANK8   BANK9  BANK10  BANK1
      +1  BANK12
  7958 ;;      Params:         0       0       0       0       0       0       0       0       0       0       0       0       
      +0       0
  7959 ;;      Locals:         0       0       0       0       0       0       0       0       0       0       0       0       
      +0       0
  7960 ;;      Temps:          0       0       0       0       0       0       0       0       0       0       0       0       
      +0       0
  7961 ;;      Totals:         0       0       0       0       0       0       0       0       0       0       0       0       
      +0       0
  7962 ;;Total ram usage:        0 bytes
  7963 ;; Hardware stack levels used: 1
  7964 ;; Hardware stack levels required when called: 5
  7965 ;; This function calls:
  7966 ;;		Nothing
  7967 ;; This function is called by:
  7968 ;;		_I2C1_Close
  7969 ;; This function uses a non-reentrant model
  7970 ;;
  7971                           
  7972                           
  7973                           ;psect for function _I2C1_MasterClose
  7974  06A4                     _I2C1_MasterClose:
  7975  06A4                     l2750:	
  7976                           ;incstack = 0
  7977                           ; Regs used in _I2C1_MasterClose: []
  7978                           
  7979                           
  7980                           ;mcc_generated_files/i2c1_master.c: 560:     SSP1CON1bits.SSPEN = 0;
  7981  06A4  0024               	movlb	4	; select bank4
  7982  06A5  1295               	bcf	21,5	;volatile
  7983  06A6                     l636:
  7984  06A6  0008               	return
  7985  06A7                     __end_of_I2C1_MasterClose:
  7986                           
  7987                           	psect	text66
  7988  06A7                     __ptext66:	
  7989 ;; *************** function _I2C1_MasterClearIrq *****************
  7990 ;; Defined at:
  7991 ;;		line 640 in file "mcc_generated_files/i2c1_master.c"
  7992 ;; Parameters:    Size  Location     Type
  7993 ;;		None
  7994 ;; Auto vars:     Size  Location     Type
  7995 ;;		None
  7996 ;; Return value:  Size  Location     Type
  7997 ;;                  1    wreg      void 
  7998 ;; Registers used:
  7999 ;;		None
  8000 ;; Tracked objects:
  8001 ;;		On entry : 0/0
  8002 ;;		On exit  : 0/0
  8003 ;;		Unchanged: 0/0
  8004 ;; Data sizes:     COMMON   BANK0   BANK1   BANK2   BANK3   BANK4   BANK5   BANK6   BANK7   BANK8   BANK9  BANK10  BANK1
      +1  BANK12
  8005 ;;      Params:         0       0       0       0       0       0       0       0       0       0       0       0       
      +0       0
  8006 ;;      Locals:         0       0       0       0       0       0       0       0       0       0       0       0       
      +0       0
  8007 ;;      Temps:          0       0       0       0       0       0       0       0       0       0       0       0       
      +0       0
  8008 ;;      Totals:         0       0       0       0       0       0       0       0       0       0       0       0       
      +0       0
  8009 ;;Total ram usage:        0 bytes
  8010 ;; Hardware stack levels used: 1
  8011 ;; Hardware stack levels required when called: 5
  8012 ;; This function calls:
  8013 ;;		Nothing
  8014 ;; This function is called by:
  8015 ;;		_I2C1_Open
  8016 ;;		_I2C1_Close
  8017 ;;		_I2C1_MasterFsm
  8018 ;; This function uses a non-reentrant model
  8019 ;;
  8020                           
  8021                           
  8022                           ;psect for function _I2C1_MasterClearIrq
  8023  06A7                     _I2C1_MasterClearIrq:
  8024  06A7                     l2542:	
  8025                           ;incstack = 0
  8026                           ; Regs used in _I2C1_MasterClearIrq: []
  8027                           
  8028                           
  8029                           ;mcc_generated_files/i2c1_master.c: 642:     PIR1bits.SSP1IF = 0;
  8030  06A7  0020               	movlb	0	; select bank0
  8031  06A8  1191               	bcf	17,3	;volatile
  8032  06A9                     l684:
  8033  06A9  0008               	return
  8034  06AA                     __end_of_I2C1_MasterClearIrq:
  8035                           
  8036                           	psect	text67
  8037  0446                     __ptext67:	
  8038 ;; *************** function _EPWM2_LoadDutyValue *****************
  8039 ;; Defined at:
  8040 ;;		line 90 in file "mcc_generated_files/epwm2.c"
  8041 ;; Parameters:    Size  Location     Type
  8042 ;;  dutyValue       2    4[COMMON] unsigned short 
  8043 ;; Auto vars:     Size  Location     Type
  8044 ;;		None
  8045 ;; Return value:  Size  Location     Type
  8046 ;;                  1    wreg      void 
  8047 ;; Registers used:
  8048 ;;		wreg, status,2, status,0
  8049 ;; Tracked objects:
  8050 ;;		On entry : 0/0
  8051 ;;		On exit  : 0/0
  8052 ;;		Unchanged: 0/0
  8053 ;; Data sizes:     COMMON   BANK0   BANK1   BANK2   BANK3   BANK4   BANK5   BANK6   BANK7   BANK8   BANK9  BANK10  BANK1
      +1  BANK12
  8054 ;;      Params:         2       0       0       0       0       0       0       0       0       0       0       0       
      +0       0
  8055 ;;      Locals:         0       0       0       0       0       0       0       0       0       0       0       0       
      +0       0
  8056 ;;      Temps:          2       0       0       0       0       0       0       0       0       0       0       0       
      +0       0
  8057 ;;      Totals:         4       0       0       0       0       0       0       0       0       0       0       0       
      +0       0
  8058 ;;Total ram usage:        4 bytes
  8059 ;; Hardware stack levels used: 1
  8060 ;; Hardware stack levels required when called: 5
  8061 ;; This function calls:
  8062 ;;		Nothing
  8063 ;; This function is called by:
  8064 ;;		_main
  8065 ;; This function uses a non-reentrant model
  8066 ;;
  8067                           
  8068                           
  8069                           ;psect for function _EPWM2_LoadDutyValue
  8070  0446                     _EPWM2_LoadDutyValue:
  8071  0446                     l2934:	
  8072                           ;incstack = 0
  8073                           ; Regs used in _EPWM2_LoadDutyValue: [wreg+status,2+status,0]
  8074                           
  8075                           
  8076                           ;mcc_generated_files/epwm2.c: 90: void EPWM2_LoadDutyValue(uint16_t dutyValue);mcc_gener
      +                          ated_files/epwm2.c: 91: {;mcc_generated_files/epwm2.c: 93:     CCPR2L = ((dutyValue & 0x
      +                          03FC)>>2);
  8077  0446  0875               	movf	EPWM2_LoadDutyValue@dutyValue+1,w
  8078  0447  00F7               	movwf	??_EPWM2_LoadDutyValue+1
  8079  0448  0874               	movf	EPWM2_LoadDutyValue@dutyValue,w
  8080  0449  00F6               	movwf	??_EPWM2_LoadDutyValue
  8081  044A  36F7               	lsrf	??_EPWM2_LoadDutyValue+1,f
  8082  044B  0CF6               	rrf	??_EPWM2_LoadDutyValue,f
  8083  044C  36F7               	lsrf	??_EPWM2_LoadDutyValue+1,f
  8084  044D  0CF6               	rrf	??_EPWM2_LoadDutyValue,f
  8085  044E  0876               	movf	??_EPWM2_LoadDutyValue,w
  8086  044F  0025               	movlb	5	; select bank5
  8087  0450  0098               	movwf	24	;volatile
  8088                           
  8089                           ;mcc_generated_files/epwm2.c: 96:     CCP2CON = ((uint8_t)(CCP2CON & 0xCF) | ((dutyValue
      +                           & 0x0003)<<4));
  8090  0451  0874               	movf	EPWM2_LoadDutyValue@dutyValue,w
  8091  0452  3903               	andlw	3
  8092  0453  00F6               	movwf	??_EPWM2_LoadDutyValue
  8093  0454  3004               	movlw	4
  8094  0455                     u885:
  8095  0455  35F6               	lslf	??_EPWM2_LoadDutyValue,f
  8096  0456  0B89               	decfsz	9,f
  8097  0457  2C55               	goto	u885
  8098  0458  081A               	movf	26,w	;volatile
  8099  0459  39CF               	andlw	207
  8100  045A  0476               	iorwf	??_EPWM2_LoadDutyValue,w
  8101  045B  009A               	movwf	26	;volatile
  8102  045C                     l123:
  8103  045C  0008               	return
  8104  045D                     __end_of_EPWM2_LoadDutyValue:
  8105                           
  8106                           	psect	text68
  8107  045D                     __ptext68:	
  8108 ;; *************** function _EPWM1_LoadDutyValue *****************
  8109 ;; Defined at:
  8110 ;;		line 90 in file "mcc_generated_files/epwm1.c"
  8111 ;; Parameters:    Size  Location     Type
  8112 ;;  dutyValue       2    4[COMMON] unsigned short 
  8113 ;; Auto vars:     Size  Location     Type
  8114 ;;		None
  8115 ;; Return value:  Size  Location     Type
  8116 ;;                  1    wreg      void 
  8117 ;; Registers used:
  8118 ;;		wreg, status,2, status,0
  8119 ;; Tracked objects:
  8120 ;;		On entry : 0/0
  8121 ;;		On exit  : 0/0
  8122 ;;		Unchanged: 0/0
  8123 ;; Data sizes:     COMMON   BANK0   BANK1   BANK2   BANK3   BANK4   BANK5   BANK6   BANK7   BANK8   BANK9  BANK10  BANK1
      +1  BANK12
  8124 ;;      Params:         2       0       0       0       0       0       0       0       0       0       0       0       
      +0       0
  8125 ;;      Locals:         0       0       0       0       0       0       0       0       0       0       0       0       
      +0       0
  8126 ;;      Temps:          2       0       0       0       0       0       0       0       0       0       0       0       
      +0       0
  8127 ;;      Totals:         4       0       0       0       0       0       0       0       0       0       0       0       
      +0       0
  8128 ;;Total ram usage:        4 bytes
  8129 ;; Hardware stack levels used: 1
  8130 ;; Hardware stack levels required when called: 5
  8131 ;; This function calls:
  8132 ;;		Nothing
  8133 ;; This function is called by:
  8134 ;;		_main
  8135 ;; This function uses a non-reentrant model
  8136 ;;
  8137                           
  8138                           
  8139                           ;psect for function _EPWM1_LoadDutyValue
  8140  045D                     _EPWM1_LoadDutyValue:
  8141  045D                     l2936:	
  8142                           ;incstack = 0
  8143                           ; Regs used in _EPWM1_LoadDutyValue: [wreg+status,2+status,0]
  8144                           
  8145                           
  8146                           ;mcc_generated_files/epwm1.c: 90: void EPWM1_LoadDutyValue(uint16_t dutyValue);mcc_gener
      +                          ated_files/epwm1.c: 91: {;mcc_generated_files/epwm1.c: 93:     CCPR1L = ((dutyValue & 0x
      +                          03FC)>>2);
  8147  045D  0875               	movf	EPWM1_LoadDutyValue@dutyValue+1,w
  8148  045E  00F7               	movwf	??_EPWM1_LoadDutyValue+1
  8149  045F  0874               	movf	EPWM1_LoadDutyValue@dutyValue,w
  8150  0460  00F6               	movwf	??_EPWM1_LoadDutyValue
  8151  0461  36F7               	lsrf	??_EPWM1_LoadDutyValue+1,f
  8152  0462  0CF6               	rrf	??_EPWM1_LoadDutyValue,f
  8153  0463  36F7               	lsrf	??_EPWM1_LoadDutyValue+1,f
  8154  0464  0CF6               	rrf	??_EPWM1_LoadDutyValue,f
  8155  0465  0876               	movf	??_EPWM1_LoadDutyValue,w
  8156  0466  0025               	movlb	5	; select bank5
  8157  0467  0091               	movwf	17	;volatile
  8158                           
  8159                           ;mcc_generated_files/epwm1.c: 96:     CCP1CON = ((uint8_t)(CCP1CON & 0xCF) | ((dutyValue
      +                           & 0x0003)<<4));
  8160  0468  0874               	movf	EPWM1_LoadDutyValue@dutyValue,w
  8161  0469  3903               	andlw	3
  8162  046A  00F6               	movwf	??_EPWM1_LoadDutyValue
  8163  046B  3004               	movlw	4
  8164  046C                     u895:
  8165  046C  35F6               	lslf	??_EPWM1_LoadDutyValue,f
  8166  046D  0B89               	decfsz	9,f
  8167  046E  2C6C               	goto	u895
  8168  046F  0813               	movf	19,w	;volatile
  8169  0470  39CF               	andlw	207
  8170  0471  0476               	iorwf	??_EPWM1_LoadDutyValue,w
  8171  0472  0093               	movwf	19	;volatile
  8172  0473                     l143:
  8173  0473  0008               	return
  8174  0474                     __end_of_EPWM1_LoadDutyValue:
  8175                           
  8176                           	psect	text69
  8177  04B9                     __ptext69:	
  8178 ;; *************** function _DELAY_milliseconds *****************
  8179 ;; Defined at:
  8180 ;;		line 38 in file "mcc_generated_files/delay.c"
  8181 ;; Parameters:    Size  Location     Type
  8182 ;;  milliseconds    2    4[COMMON] unsigned short 
  8183 ;; Auto vars:     Size  Location     Type
  8184 ;;		None
  8185 ;; Return value:  Size  Location     Type
  8186 ;;                  1    wreg      void 
  8187 ;; Registers used:
  8188 ;;		wreg, status,2, status,0
  8189 ;; Tracked objects:
  8190 ;;		On entry : 0/0
  8191 ;;		On exit  : 0/0
  8192 ;;		Unchanged: 0/0
  8193 ;; Data sizes:     COMMON   BANK0   BANK1   BANK2   BANK3   BANK4   BANK5   BANK6   BANK7   BANK8   BANK9  BANK10  BANK1
      +1  BANK12
  8194 ;;      Params:         2       0       0       0       0       0       0       0       0       0       0       0       
      +0       0
  8195 ;;      Locals:         0       0       0       0       0       0       0       0       0       0       0       0       
      +0       0
  8196 ;;      Temps:          1       0       0       0       0       0       0       0       0       0       0       0       
      +0       0
  8197 ;;      Totals:         3       0       0       0       0       0       0       0       0       0       0       0       
      +0       0
  8198 ;;Total ram usage:        3 bytes
  8199 ;; Hardware stack levels used: 1
  8200 ;; Hardware stack levels required when called: 5
  8201 ;; This function calls:
  8202 ;;		Nothing
  8203 ;; This function is called by:
  8204 ;;		_main
  8205 ;;		_DELAY_MsExample
  8206 ;; This function uses a non-reentrant model
  8207 ;;
  8208                           
  8209                           
  8210                           ;psect for function _DELAY_milliseconds
  8211  04B9                     _DELAY_milliseconds:
  8212  04B9                     l2928:	
  8213                           ;incstack = 0
  8214                           ; Regs used in _DELAY_milliseconds: [wreg+status,2+status,0]
  8215                           
  8216                           
  8217                           ;mcc_generated_files/delay.c: 39:     while(milliseconds--){
  8218  04B9  2CC2               	goto	l2932
  8219  04BA                     l2930:
  8220                           
  8221                           ;mcc_generated_files/delay.c: 40:         _delay((unsigned long)((1)*(32000000/4000.0)))
      +                          ;
  8222  04BA  300B               	movlw	11
  8223  04BB  00F6               	movwf	??_DELAY_milliseconds
  8224  04BC  3062               	movlw	98
  8225  04BD                     u1727:
  8226  04BD  0B89               	decfsz	9,f
  8227  04BE  2CBD               	goto	u1727
  8228  04BF  0BF6               	decfsz	??_DELAY_milliseconds,f
  8229  04C0  2CBD               	goto	u1727
  8230  04C1  3200               	nop2
  8231  04C2                     l2932:
  8232                           
  8233                           ;mcc_generated_files/delay.c: 39:     while(milliseconds--){
  8234  04C2  3001               	movlw	1
  8235  04C3  02F4               	subwf	DELAY_milliseconds@milliseconds,f
  8236  04C4  3000               	movlw	0
  8237  04C5  3BF5               	subwfb	DELAY_milliseconds@milliseconds+1,f
  8238  04C6  0A74               	incf	DELAY_milliseconds@milliseconds,w
  8239  04C7  1D03               	skipz
  8240  04C8  2CCD               	goto	u871
  8241  04C9  0A75               	incf	DELAY_milliseconds@milliseconds+1,w
  8242  04CA  1D03               	btfss	3,2
  8243  04CB  2CCD               	goto	u871
  8244  04CC  2CCE               	goto	u870
  8245  04CD                     u871:
  8246  04CD  2CBA               	goto	l2930
  8247  04CE                     u870:
  8248  04CE                     l246:
  8249  04CE  0008               	return
  8250  04CF                     __end_of_DELAY_milliseconds:
  8251                           
  8252                           	psect	intentry
  8253  0004                     __pintentry:	
  8254 ;; *************** function _INTERRUPT_InterruptManager *****************
  8255 ;; Defined at:
  8256 ;;		line 52 in file "mcc_generated_files/interrupt_manager.c"
  8257 ;; Parameters:    Size  Location     Type
  8258 ;;		None
  8259 ;; Auto vars:     Size  Location     Type
  8260 ;;		None
  8261 ;; Return value:  Size  Location     Type
  8262 ;;                  1    wreg      void 
  8263 ;; Registers used:
  8264 ;;		wreg, status,2, status,0, pclath, cstack
  8265 ;; Tracked objects:
  8266 ;;		On entry : 0/0
  8267 ;;		On exit  : 0/0
  8268 ;;		Unchanged: 0/0
  8269 ;; Data sizes:     COMMON   BANK0   BANK1   BANK2   BANK3   BANK4   BANK5   BANK6   BANK7   BANK8   BANK9  BANK10  BANK1
      +1  BANK12
  8270 ;;      Params:         0       0       0       0       0       0       0       0       0       0       0       0       
      +0       0
  8271 ;;      Locals:         0       0       0       0       0       0       0       0       0       0       0       0       
      +0       0
  8272 ;;      Temps:          0       0       0       0       0       0       0       0       0       0       0       0       
      +0       0
  8273 ;;      Totals:         0       0       0       0       0       0       0       0       0       0       0       0       
      +0       0
  8274 ;;Total ram usage:        0 bytes
  8275 ;; Hardware stack levels used: 1
  8276 ;; Hardware stack levels required when called: 4
  8277 ;; This function calls:
  8278 ;;		_PIN_MANAGER_IOC
  8279 ;; This function is called by:
  8280 ;;		Interrupt level 1
  8281 ;; This function uses a non-reentrant model
  8282 ;;
  8283                           
  8284  0004                     _INTERRUPT_InterruptManager:
  8285                           
  8286                           ;incstack = 0
  8287  0004  147E               	bsf	int$flags,0	;set compiler interrupt flag (level 1)
  8288                           
  8289                           ; Regs used in _INTERRUPT_InterruptManager: [wreg+status,2+status,0+pclath+cstack]
  8290  0005  3180               	pagesel	$
  8291  0006                     i1l3230:
  8292                           
  8293                           ;mcc_generated_files/interrupt_manager.c: 55:     if(INTCONbits.IOCIE == 1 && INTCONbits
      +                          .IOCIF == 1)
  8294  0006  1D8B               	btfss	11,3	;volatile
  8295  0007  2809               	goto	u126_21
  8296  0008  280A               	goto	u126_20
  8297  0009                     u126_21:
  8298  0009  2811               	goto	i1l800
  8299  000A                     u126_20:
  8300  000A                     i1l3232:
  8301  000A  1C0B               	btfss	11,0	;volatile
  8302  000B  280D               	goto	u127_21
  8303  000C  280E               	goto	u127_20
  8304  000D                     u127_21:
  8305  000D  2811               	goto	i1l800
  8306  000E                     u127_20:
  8307  000E                     i1l3234:
  8308                           
  8309                           ;mcc_generated_files/interrupt_manager.c: 56:     {;mcc_generated_files/interrupt_manage
      +                          r.c: 57:         PIN_MANAGER_IOC();
  8310  000E  3186  2615  3180   	fcall	_PIN_MANAGER_IOC
  8311  0011                     i1l800:	
  8312                           ;mcc_generated_files/interrupt_manager.c: 58:     }
  8313                           
  8314  0011  107E               	bcf	int$flags,0	;clear compiler interrupt flag (level 1)
  8315  0012  0009               	retfie
  8316  0013                     __end_of_INTERRUPT_InterruptManager:
  8317                           
  8318                           	psect	text71
  8319  0615                     __ptext71:	
  8320 ;; *************** function _PIN_MANAGER_IOC *****************
  8321 ;; Defined at:
  8322 ;;		line 115 in file "mcc_generated_files/pin_manager.c"
  8323 ;; Parameters:    Size  Location     Type
  8324 ;;		None
  8325 ;; Auto vars:     Size  Location     Type
  8326 ;;		None
  8327 ;; Return value:  Size  Location     Type
  8328 ;;                  1    wreg      void 
  8329 ;; Registers used:
  8330 ;;		wreg, status,2, status,0, pclath, cstack
  8331 ;; Tracked objects:
  8332 ;;		On entry : 0/0
  8333 ;;		On exit  : 0/0
  8334 ;;		Unchanged: 0/0
  8335 ;; Data sizes:     COMMON   BANK0   BANK1   BANK2   BANK3   BANK4   BANK5   BANK6   BANK7   BANK8   BANK9  BANK10  BANK1
      +1  BANK12
  8336 ;;      Params:         0       0       0       0       0       0       0       0       0       0       0       0       
      +0       0
  8337 ;;      Locals:         0       0       0       0       0       0       0       0       0       0       0       0       
      +0       0
  8338 ;;      Temps:          0       0       0       0       0       0       0       0       0       0       0       0       
      +0       0
  8339 ;;      Totals:         0       0       0       0       0       0       0       0       0       0       0       0       
      +0       0
  8340 ;;Total ram usage:        0 bytes
  8341 ;; Hardware stack levels used: 1
  8342 ;; Hardware stack levels required when called: 3
  8343 ;; This function calls:
  8344 ;;		_IOCBF7_ISR
  8345 ;; This function is called by:
  8346 ;;		_INTERRUPT_InterruptManager
  8347 ;; This function uses a non-reentrant model
  8348 ;;
  8349                           
  8350                           
  8351                           ;psect for function _PIN_MANAGER_IOC
  8352  0615                     _PIN_MANAGER_IOC:
  8353  0615                     i1l2970:	
  8354                           ;incstack = 0
  8355                           ; Regs used in _PIN_MANAGER_IOC: [wreg+status,2+status,0+pclath+cstack]
  8356                           
  8357                           
  8358                           ;mcc_generated_files/pin_manager.c: 118:     if(IOCBFbits.IOCBF7 == 1)
  8359  0615  0027               	movlb	7	; select bank7
  8360  0616  1F96               	btfss	22,7	;volatile
  8361  0617  2E19               	goto	u94_21
  8362  0618  2E1A               	goto	u94_20
  8363  0619                     u94_21:
  8364  0619  2E1D               	goto	i1l196
  8365  061A                     u94_20:
  8366  061A                     i1l2972:
  8367                           
  8368                           ;mcc_generated_files/pin_manager.c: 119:     {;mcc_generated_files/pin_manager.c: 120:  
      +                                 IOCBF7_ISR();
  8369  061A  3185  25C5  3186   	fcall	_IOCBF7_ISR
  8370  061D                     i1l196:
  8371  061D  0008               	return
  8372  061E                     __end_of_PIN_MANAGER_IOC:
  8373                           
  8374                           	psect	text72
  8375  05C5                     __ptext72:	
  8376 ;; *************** function _IOCBF7_ISR *****************
  8377 ;; Defined at:
  8378 ;;		line 127 in file "mcc_generated_files/pin_manager.c"
  8379 ;; Parameters:    Size  Location     Type
  8380 ;;		None
  8381 ;; Auto vars:     Size  Location     Type
  8382 ;;		None
  8383 ;; Return value:  Size  Location     Type
  8384 ;;                  1    wreg      void 
  8385 ;; Registers used:
  8386 ;;		wreg, status,2, status,0, pclath, cstack
  8387 ;; Tracked objects:
  8388 ;;		On entry : 0/0
  8389 ;;		On exit  : 0/0
  8390 ;;		Unchanged: 0/0
  8391 ;; Data sizes:     COMMON   BANK0   BANK1   BANK2   BANK3   BANK4   BANK5   BANK6   BANK7   BANK8   BANK9  BANK10  BANK1
      +1  BANK12
  8392 ;;      Params:         0       0       0       0       0       0       0       0       0       0       0       0       
      +0       0
  8393 ;;      Locals:         0       0       0       0       0       0       0       0       0       0       0       0       
      +0       0
  8394 ;;      Temps:          0       0       0       0       0       0       0       0       0       0       0       0       
      +0       0
  8395 ;;      Totals:         0       0       0       0       0       0       0       0       0       0       0       0       
      +0       0
  8396 ;;Total ram usage:        0 bytes
  8397 ;; Hardware stack levels used: 1
  8398 ;; Hardware stack levels required when called: 2
  8399 ;; This function calls:
  8400 ;;		Absolute function
  8401 ;;		_ButtonInterrupt
  8402 ;;		_IOCBF7_DefaultInterruptHandler
  8403 ;; This function is called by:
  8404 ;;		_PIN_MANAGER_IOC
  8405 ;; This function uses a non-reentrant model
  8406 ;;
  8407                           
  8408                           
  8409                           ;psect for function _IOCBF7_ISR
  8410  05C5                     _IOCBF7_ISR:
  8411  05C5                     i1l2862:	
  8412                           ;incstack = 0
  8413                           ; Regs used in _IOCBF7_ISR: [wreg+status,2+status,0+pclath+cstack]
  8414                           
  8415                           
  8416                           ;mcc_generated_files/pin_manager.c: 132:     if(IOCBF7_InterruptHandler)
  8417  05C5  0878               	movf	_IOCBF7_InterruptHandler,w
  8418  05C6  0479               	iorwf	_IOCBF7_InterruptHandler+1,w
  8419  05C7  1903               	btfsc	3,2
  8420  05C8  2DCA               	goto	u83_21
  8421  05C9  2DCB               	goto	u83_20
  8422  05CA                     u83_21:
  8423  05CA  2DD0               	goto	i1l2866
  8424  05CB                     u83_20:
  8425  05CB                     i1l2864:
  8426                           
  8427                           ;mcc_generated_files/pin_manager.c: 133:     {;mcc_generated_files/pin_manager.c: 134:  
      +                                 IOCBF7_InterruptHandler();
  8428  05CB  0879               	movf	_IOCBF7_InterruptHandler+1,w
  8429  05CC  008A               	movwf	10
  8430  05CD  0878               	movf	_IOCBF7_InterruptHandler,w
  8431  05CE  000A               	callw
  8432  05CF  3185               	pagesel	$
  8433  05D0                     i1l2866:
  8434                           
  8435                           ;mcc_generated_files/pin_manager.c: 136:     IOCBFbits.IOCBF7 = 0;
  8436  05D0  0027               	movlb	7	; select bank7
  8437  05D1  1396               	bcf	22,7	;volatile
  8438  05D2                     i1l200:
  8439  05D2  0008               	return
  8440  05D3                     __end_of_IOCBF7_ISR:
  8441                           
  8442                           	psect	text73
  8443  03A9                     __ptext73:	
  8444 ;; *************** function _ButtonInterrupt *****************
  8445 ;; Defined at:
  8446 ;;		line 138 in file "main.c"
  8447 ;; Parameters:    Size  Location     Type
  8448 ;;		None
  8449 ;; Auto vars:     Size  Location     Type
  8450 ;;		None
  8451 ;; Return value:  Size  Location     Type
  8452 ;;                  1    wreg      void 
  8453 ;; Registers used:
  8454 ;;		wreg, status,2, status,0, pclath, cstack
  8455 ;; Tracked objects:
  8456 ;;		On entry : 0/0
  8457 ;;		On exit  : 0/0
  8458 ;;		Unchanged: 0/0
  8459 ;; Data sizes:     COMMON   BANK0   BANK1   BANK2   BANK3   BANK4   BANK5   BANK6   BANK7   BANK8   BANK9  BANK10  BANK1
      +1  BANK12
  8460 ;;      Params:         0       0       0       0       0       0       0       0       0       0       0       0       
      +0       0
  8461 ;;      Locals:         0       0       0       0       0       0       0       0       0       0       0       0       
      +0       0
  8462 ;;      Temps:          0       0       0       0       0       0       0       0       0       0       0       0       
      +0       0
  8463 ;;      Totals:         0       0       0       0       0       0       0       0       0       0       0       0       
      +0       0
  8464 ;;Total ram usage:        0 bytes
  8465 ;; Hardware stack levels used: 1
  8466 ;; Hardware stack levels required when called: 1
  8467 ;; This function calls:
  8468 ;;		i1_DELAY_milliseconds
  8469 ;;		i1_EPWM1_LoadDutyValue
  8470 ;;		i1_EPWM2_LoadDutyValue
  8471 ;;		i1_PWM4_LoadDutyValue
  8472 ;; This function is called by:
  8473 ;;		_main
  8474 ;;		_IOCBF7_ISR
  8475 ;; This function uses a non-reentrant model
  8476 ;;
  8477                           
  8478                           
  8479                           ;psect for function _ButtonInterrupt
  8480  03A9                     _ButtonInterrupt:
  8481  03A9                     i1l2734:	
  8482                           ;incstack = 0
  8483                           ; Regs used in _ButtonInterrupt: [wreg+status,2+status,0+pclath+cstack]
  8484                           
  8485                           
  8486                           ;main.c: 140:     EPWM1_LoadDutyValue(160);
  8487  03A9  30A0               	movlw	160
  8488  03AA  00F0               	movwf	i1EPWM1_LoadDutyValue@dutyValue
  8489  03AB  3000               	movlw	0
  8490  03AC  00F1               	movwf	i1EPWM1_LoadDutyValue@dutyValue+1
  8491  03AD  3184  24A2  3183   	fcall	i1_EPWM1_LoadDutyValue
  8492                           
  8493                           ;main.c: 141:     EPWM2_LoadDutyValue(160);
  8494  03B0  30A0               	movlw	160
  8495  03B1  00F0               	movwf	i1EPWM2_LoadDutyValue@dutyValue
  8496  03B2  3000               	movlw	0
  8497  03B3  00F1               	movwf	i1EPWM2_LoadDutyValue@dutyValue+1
  8498  03B4  3184  248B  3183   	fcall	i1_EPWM2_LoadDutyValue
  8499                           
  8500                           ;main.c: 142:     PWM4_LoadDutyValue(160);
  8501  03B7  30A0               	movlw	160
  8502  03B8  00F0               	movwf	i1PWM4_LoadDutyValue@dutyValue
  8503  03B9  3000               	movlw	0
  8504  03BA  00F1               	movwf	i1PWM4_LoadDutyValue@dutyValue+1
  8505  03BB  3184  2474  3183   	fcall	i1_PWM4_LoadDutyValue
  8506                           
  8507                           ;main.c: 143:     DELAY_milliseconds(3000);
  8508  03BE  30B8               	movlw	184
  8509  03BF  00F0               	movwf	i1DELAY_milliseconds@milliseconds
  8510  03C0  300B               	movlw	11
  8511  03C1  00F1               	movwf	i1DELAY_milliseconds@milliseconds+1
  8512  03C2  3184  24CF  3183   	fcall	i1_DELAY_milliseconds
  8513  03C5                     i1l103:
  8514  03C5  0008               	return
  8515  03C6                     __end_of_ButtonInterrupt:
  8516                           
  8517                           	psect	text74
  8518  06AE                     __ptext74:	
  8519 ;; *************** function _IOCBF7_DefaultInterruptHandler *****************
  8520 ;; Defined at:
  8521 ;;		line 149 in file "mcc_generated_files/pin_manager.c"
  8522 ;; Parameters:    Size  Location     Type
  8523 ;;		None
  8524 ;; Auto vars:     Size  Location     Type
  8525 ;;		None
  8526 ;; Return value:  Size  Location     Type
  8527 ;;                  1    wreg      void 
  8528 ;; Registers used:
  8529 ;;		None
  8530 ;; Tracked objects:
  8531 ;;		On entry : 0/0
  8532 ;;		On exit  : 0/0
  8533 ;;		Unchanged: 0/0
  8534 ;; Data sizes:     COMMON   BANK0   BANK1   BANK2   BANK3   BANK4   BANK5   BANK6   BANK7   BANK8   BANK9  BANK10  BANK1
      +1  BANK12
  8535 ;;      Params:         0       0       0       0       0       0       0       0       0       0       0       0       
      +0       0
  8536 ;;      Locals:         0       0       0       0       0       0       0       0       0       0       0       0       
      +0       0
  8537 ;;      Temps:          0       0       0       0       0       0       0       0       0       0       0       0       
      +0       0
  8538 ;;      Totals:         0       0       0       0       0       0       0       0       0       0       0       0       
      +0       0
  8539 ;;Total ram usage:        0 bytes
  8540 ;; Hardware stack levels used: 1
  8541 ;; This function calls:
  8542 ;;		Nothing
  8543 ;; This function is called by:
  8544 ;;		_PIN_MANAGER_Initialize
  8545 ;;		_IOCBF7_ISR
  8546 ;; This function uses a non-reentrant model
  8547 ;;
  8548                           
  8549                           
  8550                           ;psect for function _IOCBF7_DefaultInterruptHandler
  8551  06AE                     _IOCBF7_DefaultInterruptHandler:
  8552  06AE                     i1l206:	
  8553                           ;incstack = 0
  8554                           ; Regs used in _IOCBF7_DefaultInterruptHandler: []
  8555                           
  8556  06AE  0008               	return
  8557  06AF                     __end_of_IOCBF7_DefaultInterruptHandler:
  8558                           
  8559                           	psect	text75
  8560  0474                     __ptext75:	
  8561 ;; *************** function i1_PWM4_LoadDutyValue *****************
  8562 ;; Defined at:
  8563 ;;		line 82 in file "mcc_generated_files/pwm4.c"
  8564 ;; Parameters:    Size  Location     Type
  8565 ;;  dutyValue       2    0[COMMON] unsigned short 
  8566 ;; Auto vars:     Size  Location     Type
  8567 ;;		None
  8568 ;; Return value:  Size  Location     Type
  8569 ;;                  1    wreg      void 
  8570 ;; Registers used:
  8571 ;;		wreg, status,2, status,0
  8572 ;; Tracked objects:
  8573 ;;		On entry : 0/0
  8574 ;;		On exit  : 0/0
  8575 ;;		Unchanged: 0/0
  8576 ;; Data sizes:     COMMON   BANK0   BANK1   BANK2   BANK3   BANK4   BANK5   BANK6   BANK7   BANK8   BANK9  BANK10  BANK1
      +1  BANK12
  8577 ;;      Params:         2       0       0       0       0       0       0       0       0       0       0       0       
      +0       0
  8578 ;;      Locals:         0       0       0       0       0       0       0       0       0       0       0       0       
      +0       0
  8579 ;;      Temps:          2       0       0       0       0       0       0       0       0       0       0       0       
      +0       0
  8580 ;;      Totals:         4       0       0       0       0       0       0       0       0       0       0       0       
      +0       0
  8581 ;;Total ram usage:        4 bytes
  8582 ;; Hardware stack levels used: 1
  8583 ;; This function calls:
  8584 ;;		Nothing
  8585 ;; This function is called by:
  8586 ;;		_ButtonInterrupt
  8587 ;; This function uses a non-reentrant model
  8588 ;;
  8589                           
  8590                           
  8591                           ;psect for function i1_PWM4_LoadDutyValue
  8592  0474                     i1_PWM4_LoadDutyValue:
  8593  0474                     i1l2720:	
  8594                           ;incstack = 0
  8595                           ; Regs used in i1_PWM4_LoadDutyValue: [wreg+status,2+status,0]
  8596                           
  8597                           
  8598                           ;mcc_generated_files/pwm4.c: 82: void PWM4_LoadDutyValue(uint16_t dutyValue);mcc_generat
      +                          ed_files/pwm4.c: 83: {;mcc_generated_files/pwm4.c: 85:     CCPR4L = ((dutyValue & 0x03FC
      +                          )>>2);
  8599  0474  0871               	movf	i1PWM4_LoadDutyValue@dutyValue+1,w
  8600  0475  00F3               	movwf	??i1_PWM4_LoadDutyValue+1
  8601  0476  0870               	movf	i1PWM4_LoadDutyValue@dutyValue,w
  8602  0477  00F2               	movwf	??i1_PWM4_LoadDutyValue
  8603  0478  36F3               	lsrf	??i1_PWM4_LoadDutyValue+1,f
  8604  0479  0CF2               	rrf	??i1_PWM4_LoadDutyValue,f
  8605  047A  36F3               	lsrf	??i1_PWM4_LoadDutyValue+1,f
  8606  047B  0CF2               	rrf	??i1_PWM4_LoadDutyValue,f
  8607  047C  0872               	movf	??i1_PWM4_LoadDutyValue,w
  8608  047D  0026               	movlb	6	; select bank6
  8609  047E  0098               	movwf	24	;volatile
  8610                           
  8611                           ;mcc_generated_files/pwm4.c: 88:     CCP4CON = ((uint8_t)(CCP4CON & 0xCF) | ((dutyValue 
      +                          & 0x0003)<<4));
  8612  047F  0870               	movf	i1PWM4_LoadDutyValue@dutyValue,w
  8613  0480  3903               	andlw	3
  8614  0481  00F2               	movwf	??i1_PWM4_LoadDutyValue
  8615  0482  3004               	movlw	4
  8616  0483                     u75_25:
  8617  0483  35F2               	lslf	??i1_PWM4_LoadDutyValue,f
  8618  0484  0B89               	decfsz	9,f
  8619  0485  2C83               	goto	u75_25
  8620  0486  081A               	movf	26,w	;volatile
  8621  0487  39CF               	andlw	207
  8622  0488  0472               	iorwf	??i1_PWM4_LoadDutyValue,w
  8623  0489  009A               	movwf	26	;volatile
  8624  048A                     i1l52:
  8625  048A  0008               	return
  8626  048B                     __end_ofi1_PWM4_LoadDutyValue:
  8627                           
  8628                           	psect	text76
  8629  048B                     __ptext76:	
  8630 ;; *************** function i1_EPWM2_LoadDutyValue *****************
  8631 ;; Defined at:
  8632 ;;		line 90 in file "mcc_generated_files/epwm2.c"
  8633 ;; Parameters:    Size  Location     Type
  8634 ;;  dutyValue       2    0[COMMON] unsigned short 
  8635 ;; Auto vars:     Size  Location     Type
  8636 ;;		None
  8637 ;; Return value:  Size  Location     Type
  8638 ;;                  1    wreg      void 
  8639 ;; Registers used:
  8640 ;;		wreg, status,2, status,0
  8641 ;; Tracked objects:
  8642 ;;		On entry : 0/0
  8643 ;;		On exit  : 0/0
  8644 ;;		Unchanged: 0/0
  8645 ;; Data sizes:     COMMON   BANK0   BANK1   BANK2   BANK3   BANK4   BANK5   BANK6   BANK7   BANK8   BANK9  BANK10  BANK1
      +1  BANK12
  8646 ;;      Params:         2       0       0       0       0       0       0       0       0       0       0       0       
      +0       0
  8647 ;;      Locals:         0       0       0       0       0       0       0       0       0       0       0       0       
      +0       0
  8648 ;;      Temps:          2       0       0       0       0       0       0       0       0       0       0       0       
      +0       0
  8649 ;;      Totals:         4       0       0       0       0       0       0       0       0       0       0       0       
      +0       0
  8650 ;;Total ram usage:        4 bytes
  8651 ;; Hardware stack levels used: 1
  8652 ;; This function calls:
  8653 ;;		Nothing
  8654 ;; This function is called by:
  8655 ;;		_ButtonInterrupt
  8656 ;; This function uses a non-reentrant model
  8657 ;;
  8658                           
  8659                           
  8660                           ;psect for function i1_EPWM2_LoadDutyValue
  8661  048B                     i1_EPWM2_LoadDutyValue:
  8662  048B                     i1l2722:	
  8663                           ;incstack = 0
  8664                           ; Regs used in i1_EPWM2_LoadDutyValue: [wreg+status,2+status,0]
  8665                           
  8666                           
  8667                           ;mcc_generated_files/epwm2.c: 90: void EPWM2_LoadDutyValue(uint16_t dutyValue);mcc_gener
      +                          ated_files/epwm2.c: 91: {;mcc_generated_files/epwm2.c: 93:     CCPR2L = ((dutyValue & 0x
      +                          03FC)>>2);
  8668  048B  0871               	movf	i1EPWM2_LoadDutyValue@dutyValue+1,w
  8669  048C  00F3               	movwf	??i1_EPWM2_LoadDutyValue+1
  8670  048D  0870               	movf	i1EPWM2_LoadDutyValue@dutyValue,w
  8671  048E  00F2               	movwf	??i1_EPWM2_LoadDutyValue
  8672  048F  36F3               	lsrf	??i1_EPWM2_LoadDutyValue+1,f
  8673  0490  0CF2               	rrf	??i1_EPWM2_LoadDutyValue,f
  8674  0491  36F3               	lsrf	??i1_EPWM2_LoadDutyValue+1,f
  8675  0492  0CF2               	rrf	??i1_EPWM2_LoadDutyValue,f
  8676  0493  0872               	movf	??i1_EPWM2_LoadDutyValue,w
  8677  0494  0025               	movlb	5	; select bank5
  8678  0495  0098               	movwf	24	;volatile
  8679                           
  8680                           ;mcc_generated_files/epwm2.c: 96:     CCP2CON = ((uint8_t)(CCP2CON & 0xCF) | ((dutyValue
      +                           & 0x0003)<<4));
  8681  0496  0870               	movf	i1EPWM2_LoadDutyValue@dutyValue,w
  8682  0497  3903               	andlw	3
  8683  0498  00F2               	movwf	??i1_EPWM2_LoadDutyValue
  8684  0499  3004               	movlw	4
  8685  049A                     u76_25:
  8686  049A  35F2               	lslf	??i1_EPWM2_LoadDutyValue,f
  8687  049B  0B89               	decfsz	9,f
  8688  049C  2C9A               	goto	u76_25
  8689  049D  081A               	movf	26,w	;volatile
  8690  049E  39CF               	andlw	207
  8691  049F  0472               	iorwf	??i1_EPWM2_LoadDutyValue,w
  8692  04A0  009A               	movwf	26	;volatile
  8693  04A1                     i1l123:
  8694  04A1  0008               	return
  8695  04A2                     __end_ofi1_EPWM2_LoadDutyValue:
  8696                           
  8697                           	psect	text77
  8698  04A2                     __ptext77:	
  8699 ;; *************** function i1_EPWM1_LoadDutyValue *****************
  8700 ;; Defined at:
  8701 ;;		line 90 in file "mcc_generated_files/epwm1.c"
  8702 ;; Parameters:    Size  Location     Type
  8703 ;;  dutyValue       2    0[COMMON] unsigned short 
  8704 ;; Auto vars:     Size  Location     Type
  8705 ;;		None
  8706 ;; Return value:  Size  Location     Type
  8707 ;;                  1    wreg      void 
  8708 ;; Registers used:
  8709 ;;		wreg, status,2, status,0
  8710 ;; Tracked objects:
  8711 ;;		On entry : 0/0
  8712 ;;		On exit  : 0/0
  8713 ;;		Unchanged: 0/0
  8714 ;; Data sizes:     COMMON   BANK0   BANK1   BANK2   BANK3   BANK4   BANK5   BANK6   BANK7   BANK8   BANK9  BANK10  BANK1
      +1  BANK12
  8715 ;;      Params:         2       0       0       0       0       0       0       0       0       0       0       0       
      +0       0
  8716 ;;      Locals:         0       0       0       0       0       0       0       0       0       0       0       0       
      +0       0
  8717 ;;      Temps:          2       0       0       0       0       0       0       0       0       0       0       0       
      +0       0
  8718 ;;      Totals:         4       0       0       0       0       0       0       0       0       0       0       0       
      +0       0
  8719 ;;Total ram usage:        4 bytes
  8720 ;; Hardware stack levels used: 1
  8721 ;; This function calls:
  8722 ;;		Nothing
  8723 ;; This function is called by:
  8724 ;;		_ButtonInterrupt
  8725 ;; This function uses a non-reentrant model
  8726 ;;
  8727                           
  8728                           
  8729                           ;psect for function i1_EPWM1_LoadDutyValue
  8730  04A2                     i1_EPWM1_LoadDutyValue:
  8731  04A2                     i1l2724:	
  8732                           ;incstack = 0
  8733                           ; Regs used in i1_EPWM1_LoadDutyValue: [wreg+status,2+status,0]
  8734                           
  8735                           
  8736                           ;mcc_generated_files/epwm1.c: 90: void EPWM1_LoadDutyValue(uint16_t dutyValue);mcc_gener
      +                          ated_files/epwm1.c: 91: {;mcc_generated_files/epwm1.c: 93:     CCPR1L = ((dutyValue & 0x
      +                          03FC)>>2);
  8737  04A2  0871               	movf	i1EPWM1_LoadDutyValue@dutyValue+1,w
  8738  04A3  00F3               	movwf	??i1_EPWM1_LoadDutyValue+1
  8739  04A4  0870               	movf	i1EPWM1_LoadDutyValue@dutyValue,w
  8740  04A5  00F2               	movwf	??i1_EPWM1_LoadDutyValue
  8741  04A6  36F3               	lsrf	??i1_EPWM1_LoadDutyValue+1,f
  8742  04A7  0CF2               	rrf	??i1_EPWM1_LoadDutyValue,f
  8743  04A8  36F3               	lsrf	??i1_EPWM1_LoadDutyValue+1,f
  8744  04A9  0CF2               	rrf	??i1_EPWM1_LoadDutyValue,f
  8745  04AA  0872               	movf	??i1_EPWM1_LoadDutyValue,w
  8746  04AB  0025               	movlb	5	; select bank5
  8747  04AC  0091               	movwf	17	;volatile
  8748                           
  8749                           ;mcc_generated_files/epwm1.c: 96:     CCP1CON = ((uint8_t)(CCP1CON & 0xCF) | ((dutyValue
      +                           & 0x0003)<<4));
  8750  04AD  0870               	movf	i1EPWM1_LoadDutyValue@dutyValue,w
  8751  04AE  3903               	andlw	3
  8752  04AF  00F2               	movwf	??i1_EPWM1_LoadDutyValue
  8753  04B0  3004               	movlw	4
  8754  04B1                     u77_25:
  8755  04B1  35F2               	lslf	??i1_EPWM1_LoadDutyValue,f
  8756  04B2  0B89               	decfsz	9,f
  8757  04B3  2CB1               	goto	u77_25
  8758  04B4  0813               	movf	19,w	;volatile
  8759  04B5  39CF               	andlw	207
  8760  04B6  0472               	iorwf	??i1_EPWM1_LoadDutyValue,w
  8761  04B7  0093               	movwf	19	;volatile
  8762  04B8                     i1l143:
  8763  04B8  0008               	return
  8764  04B9                     __end_ofi1_EPWM1_LoadDutyValue:
  8765                           
  8766                           	psect	text78
  8767  04CF                     __ptext78:	
  8768 ;; *************** function i1_DELAY_milliseconds *****************
  8769 ;; Defined at:
  8770 ;;		line 38 in file "mcc_generated_files/delay.c"
  8771 ;; Parameters:    Size  Location     Type
  8772 ;;  milliseconds    2    0[COMMON] unsigned short 
  8773 ;; Auto vars:     Size  Location     Type
  8774 ;;		None
  8775 ;; Return value:  Size  Location     Type
  8776 ;;                  1    wreg      void 
  8777 ;; Registers used:
  8778 ;;		wreg, status,2, status,0
  8779 ;; Tracked objects:
  8780 ;;		On entry : 0/0
  8781 ;;		On exit  : 0/0
  8782 ;;		Unchanged: 0/0
  8783 ;; Data sizes:     COMMON   BANK0   BANK1   BANK2   BANK3   BANK4   BANK5   BANK6   BANK7   BANK8   BANK9  BANK10  BANK1
      +1  BANK12
  8784 ;;      Params:         2       0       0       0       0       0       0       0       0       0       0       0       
      +0       0
  8785 ;;      Locals:         0       0       0       0       0       0       0       0       0       0       0       0       
      +0       0
  8786 ;;      Temps:          1       0       0       0       0       0       0       0       0       0       0       0       
      +0       0
  8787 ;;      Totals:         3       0       0       0       0       0       0       0       0       0       0       0       
      +0       0
  8788 ;;Total ram usage:        3 bytes
  8789 ;; Hardware stack levels used: 1
  8790 ;; This function calls:
  8791 ;;		Nothing
  8792 ;; This function is called by:
  8793 ;;		_ButtonInterrupt
  8794 ;; This function uses a non-reentrant model
  8795 ;;
  8796                           
  8797                           
  8798                           ;psect for function i1_DELAY_milliseconds
  8799  04CF                     i1_DELAY_milliseconds:
  8800  04CF                     i1l2726:	
  8801                           ;incstack = 0
  8802                           ; Regs used in i1_DELAY_milliseconds: [wreg+status,2+status,0]
  8803                           
  8804                           
  8805                           ;mcc_generated_files/delay.c: 39:     while(milliseconds--){
  8806  04CF  2CD8               	goto	i1l2730
  8807  04D0                     i1l2728:
  8808                           
  8809                           ;mcc_generated_files/delay.c: 40:         _delay((unsigned long)((1)*(32000000/4000.0)))
      +                          ;
  8810  04D0  300B               	movlw	11
  8811  04D1  00F2               	movwf	??i1_DELAY_milliseconds
  8812  04D2  3062               	movlw	98
  8813  04D3                     u173_27:
  8814  04D3  0B89               	decfsz	9,f
  8815  04D4  2CD3               	goto	u173_27
  8816  04D5  0BF2               	decfsz	??i1_DELAY_milliseconds,f
  8817  04D6  2CD3               	goto	u173_27
  8818  04D7  3200               	nop2
  8819  04D8                     i1l2730:
  8820                           
  8821                           ;mcc_generated_files/delay.c: 39:     while(milliseconds--){
  8822  04D8  3001               	movlw	1
  8823  04D9  02F0               	subwf	i1DELAY_milliseconds@milliseconds,f
  8824  04DA  3000               	movlw	0
  8825  04DB  3BF1               	subwfb	i1DELAY_milliseconds@milliseconds+1,f
  8826  04DC  0A70               	incf	i1DELAY_milliseconds@milliseconds,w
  8827  04DD  1D03               	skipz
  8828  04DE  2CE3               	goto	u78_21
  8829  04DF  0A71               	incf	i1DELAY_milliseconds@milliseconds+1,w
  8830  04E0  1D03               	btfss	3,2
  8831  04E1  2CE3               	goto	u78_21
  8832  04E2  2CE4               	goto	u78_20
  8833  04E3                     u78_21:
  8834  04E3  2CD0               	goto	i1l2728
  8835  04E4                     u78_20:
  8836  04E4                     i1l246:
  8837  04E4  0008               	return
  8838  04E5                     __end_ofi1_DELAY_milliseconds:
  8839  007E                     btemp	set	126	;btemp
  8840  007E                     int$flags	set	126
  8841  007E                     wtemp0	set	126
  8842                           
  8843                           	psect	config
  8844                           
  8845                           ;Config register CONFIG1 @ 0x8007
  8846                           ;	Oscillator Selection
  8847                           ;	FOSC = INTOSC, INTOSC oscillator: I/O function on CLKIN pin
  8848                           ;	Watchdog Timer Enable
  8849                           ;	WDTE = OFF, WDT disabled
  8850                           ;	Power-up Timer Enable
  8851                           ;	PWRTE = OFF, PWRT disabled
  8852                           ;	MCLR Pin Function Select
  8853                           ;	MCLRE = ON, MCLR/VPP pin function is MCLR
  8854                           ;	Flash Program Memory Code Protection
  8855                           ;	CP = OFF, Program memory code protection is disabled
  8856                           ;	Data Memory Code Protection
  8857                           ;	CPD = OFF, Data memory code protection is disabled
  8858                           ;	Brown-out Reset Enable
  8859                           ;	BOREN = ON, Brown-out Reset enabled
  8860                           ;	Clock Out Enable
  8861                           ;	CLKOUTEN = OFF, CLKOUT function is disabled. I/O or oscillator function on the CLKOUT 
      +                          pin
  8862                           ;	Internal/External Switchover
  8863                           ;	IESO = ON, Internal/External Switchover mode is enabled
  8864                           ;	Fail-Safe Clock Monitor Enable
  8865                           ;	FCMEN = ON, Fail-Safe Clock Monitor is enabled
  8866  8007                     	org	32775
  8867  8007  3FE4               	dw	16356
  8868                           
  8869                           ;Config register CONFIG2 @ 0x8008
  8870                           ;	Flash Memory Self-Write Protection
  8871                           ;	WRT = OFF, Write protection off
  8872                           ;	PLL Enable
  8873                           ;	PLLEN = ON, 4x PLL enabled
  8874                           ;	Stack Overflow/Underflow Reset Enable
  8875                           ;	STVREN = ON, Stack Overflow or Underflow will cause a Reset
  8876                           ;	Brown-out Reset Voltage Selection
  8877                           ;	BORV = LO, Brown-out Reset Voltage (Vbor), low trip point selected.
  8878                           ;	Low-Voltage Programming Enable
  8879                           ;	LVP = ON, Low-voltage programming enabled
  8880  8008                     	org	32776
  8881  8008  3FFF               	dw	16383

Data Sizes:
    Strings     0
    Constant    32
    Data        0
    BSS         29
    Persistent  34
    Stack       0

Auto Spaces:
    Space          Size  Autos    Used
    COMMON           14      8      10
    BANK0            80     25      54
    BANK1            80      0       0
    BANK2            80      0       0
    BANK3            80      0       0
    BANK4            80      0       0
    BANK5            80      0       0
    BANK6            80      0       0
    BANK7            80      0       0
    BANK8            80      0       0
    BANK9            80      0       0
    BANK10           80      0       0
    BANK11           80      0       0
    BANK12           48      0       0

Pointer List with Targets:

    I2C1_Read1ByteRegister@returnValue.data	PTR unsigned char  size(1) Largest target is 0

    I2C1_Read2ByteRegister@returnValue.data	PTR unsigned char  size(1) Largest target is 0

    I2C1_Write1ByteRegister@data.data	PTR unsigned char  size(1) Largest target is 0

    I2C1_Write2ByteRegister@data.data	PTR unsigned char  size(1) Largest target is 0

    i2c_write1ByteRegister@data.data	PTR unsigned char  size(1) Largest target is 0

    i2c_read1ByteRegister@d2.data	PTR unsigned char  size(1) Largest target is 0

    i2c_read2ByteRegister@result.data	PTR unsigned char  size(1) Largest target is 0

    i2c_write2ByteRegister@data.data	PTR unsigned char  size(1) Largest target is 0

    I2C1_DO_TX$2049$0	PTR void  size(1) Largest target is 4
		 -> i2c_readDataBlock@d(COMMON[3]), i2c_write2ByteRegister@data(COMMON[2]), i2c_read2ByteRegister@result(COMMON[2]), i2c_read1ByteRegister@d2(COMMON[1]), 
		 -> i2c_write1ByteRegister@data(COMMON[1]), I2C1_ReadDataBlock@bufferBlock(COMMON[3]), I2C1_Write2ByteRegister@data(COMMON[2]), I2C1_Write1ByteRegister@data(BANK0[1]), 
		 -> I2C1_Read2ByteRegister@returnValue(COMMON[2]), NULL(NULL[0]), I2C1_Read1ByteRegister@returnValue(BANK0[1]), 

    I2C1_DO_TX$2054	PTR void  size(1) Largest target is 4
		 -> i2c_readDataBlock@d(COMMON[3]), i2c_write2ByteRegister@data(COMMON[2]), i2c_read2ByteRegister@result(COMMON[2]), i2c_read1ByteRegister@d2(COMMON[1]), 
		 -> i2c_write1ByteRegister@data(COMMON[1]), I2C1_ReadDataBlock@bufferBlock(COMMON[3]), I2C1_Write2ByteRegister@data(COMMON[2]), I2C1_Write1ByteRegister@data(BANK0[1]), 
		 -> I2C1_Read2ByteRegister@returnValue(COMMON[2]), NULL(NULL[0]), I2C1_Read1ByteRegister@returnValue(BANK0[1]), 

    I2C1_DO_TX$2049	PTR FTN(PTR void ,)enum E360 size(2) Largest target is 1
		 -> rdBlkRegCompleteHandler@i2c_simple_master$F1288(), wr2RegCompleteHandler@i2c_simple_master$F1282(), rd2RegCompleteHandler@i2c_simple_master$F1276(), rd1RegCompleteHandler@i2c_simple_master$F1268(), 
		 -> wr1RegCompleteHandler@i2c_simple_master$F1258(), I2C1_CallbackReturnReset(), I2C1_CallbackReturnStop(), rdBlkRegCompleteHandler(), 
		 -> wr2RegCompleteHandler(), wr1RegCompleteHandler(), rd2RegCompleteHandler(), rd1RegCompleteHandler(), 
		 -> Absolute function(), 

    I2C1_MasterFsm$2048	const PTR FTN()enum E3009 size(2) Largest target is 1
		 -> I2C1_DO_ADDRESS_NACK(), I2C1_DO_RESET(), I2C1_DO_RX_NACK_RESTART(), I2C1_DO_RX_NACK_STOP(), 
		 -> I2C1_DO_RX_ACK(), I2C1_DO_SEND_STOP(), I2C1_DO_SEND_RESTART(), I2C1_DO_SEND_RESTART_WRITE(), 
		 -> I2C1_DO_SEND_RESTART_READ(), I2C1_DO_TX_EMPTY(), I2C1_DO_RCEN(), I2C1_DO_RX(), 
		 -> I2C1_DO_TX(), I2C1_DO_SEND_ADR_WRITE(), I2C1_DO_SEND_ADR_READ(), I2C1_DO_IDLE(), 

    I2C1_CallbackReturnStop@funPtr	PTR void  size(1) Largest target is 4
		 -> i2c_readDataBlock@d(COMMON[3]), i2c_write2ByteRegister@data(COMMON[2]), i2c_read2ByteRegister@result(COMMON[2]), i2c_read1ByteRegister@d2(COMMON[1]), 
		 -> i2c_write1ByteRegister@data(COMMON[1]), I2C1_ReadDataBlock@bufferBlock(COMMON[3]), I2C1_Write2ByteRegister@data(COMMON[2]), I2C1_Write1ByteRegister@data(BANK0[1]), 
		 -> I2C1_Read2ByteRegister@returnValue(COMMON[2]), NULL(NULL[0]), I2C1_Read1ByteRegister@returnValue(BANK0[1]), 

    I2C1_CallbackReturnReset@funPtr	PTR void  size(1) Largest target is 4
		 -> i2c_readDataBlock@d(COMMON[3]), i2c_write2ByteRegister@data(COMMON[2]), i2c_read2ByteRegister@result(COMMON[2]), i2c_read1ByteRegister@d2(COMMON[1]), 
		 -> i2c_write1ByteRegister@data(COMMON[1]), I2C1_ReadDataBlock@bufferBlock(COMMON[3]), I2C1_Write2ByteRegister@data(COMMON[2]), I2C1_Write1ByteRegister@data(BANK0[1]), 
		 -> I2C1_Read2ByteRegister@returnValue(COMMON[2]), NULL(NULL[0]), I2C1_Read1ByteRegister@returnValue(BANK0[1]), 

    cb$0	PTR void  size(1) Largest target is 4
		 -> i2c_readDataBlock@d(COMMON[3]), i2c_write2ByteRegister@data(COMMON[2]), i2c_read2ByteRegister@result(COMMON[2]), i2c_read1ByteRegister@d2(COMMON[1]), 
		 -> i2c_write1ByteRegister@data(COMMON[1]), I2C1_ReadDataBlock@bufferBlock(COMMON[3]), I2C1_Write2ByteRegister@data(COMMON[2]), I2C1_Write1ByteRegister@data(BANK0[1]), 
		 -> I2C1_Read2ByteRegister@returnValue(COMMON[2]), NULL(NULL[0]), I2C1_Read1ByteRegister@returnValue(BANK0[1]), 

    cb$0	PTR void  size(1) Largest target is 4
		 -> i2c_readDataBlock@d(COMMON[3]), i2c_write2ByteRegister@data(COMMON[2]), i2c_read2ByteRegister@result(COMMON[2]), i2c_read1ByteRegister@d2(COMMON[1]), 
		 -> i2c_write1ByteRegister@data(COMMON[1]), I2C1_ReadDataBlock@bufferBlock(COMMON[3]), I2C1_Write2ByteRegister@data(COMMON[2]), I2C1_Write1ByteRegister@data(BANK0[1]), 
		 -> I2C1_Read2ByteRegister@returnValue(COMMON[2]), NULL(NULL[0]), I2C1_Read1ByteRegister@returnValue(BANK0[1]), 

    S754$0$0	PTR void  size(1) Largest target is 4
		 -> i2c_readDataBlock@d(COMMON[3]), i2c_write2ByteRegister@data(COMMON[2]), i2c_read2ByteRegister@result(COMMON[2]), i2c_read1ByteRegister@d2(COMMON[1]), 
		 -> i2c_write1ByteRegister@data(COMMON[1]), I2C1_ReadDataBlock@bufferBlock(COMMON[3]), I2C1_Write2ByteRegister@data(COMMON[2]), I2C1_Write1ByteRegister@data(BANK0[1]), 
		 -> I2C1_Read2ByteRegister@returnValue(COMMON[2]), NULL(NULL[0]), I2C1_Read1ByteRegister@returnValue(BANK0[1]), 

    d.data	PTR unsigned char  size(1) Largest target is 0

    rdBlkRegCompleteHandler@i2c_simple_master$F1288@p.data	PTR unsigned char  size(1) Largest target is 0

    rdBlkRegCompleteHandler@i2c_simple_master$F1288@p	PTR void  size(1) Largest target is 4
		 -> i2c_readDataBlock@d(COMMON[3]), i2c_write2ByteRegister@data(COMMON[2]), i2c_read2ByteRegister@result(COMMON[2]), i2c_read1ByteRegister@d2(COMMON[1]), 
		 -> i2c_write1ByteRegister@data(COMMON[1]), I2C1_ReadDataBlock@bufferBlock(COMMON[3]), I2C1_Write2ByteRegister@data(COMMON[2]), I2C1_Write1ByteRegister@data(BANK0[1]), 
		 -> I2C1_Read2ByteRegister@returnValue(COMMON[2]), NULL(NULL[0]), I2C1_Read1ByteRegister@returnValue(BANK0[1]), 

    wr2RegCompleteHandler@i2c_simple_master$F1282@p	PTR void  size(1) Largest target is 4
		 -> i2c_readDataBlock@d(COMMON[3]), i2c_write2ByteRegister@data(COMMON[2]), i2c_read2ByteRegister@result(COMMON[2]), i2c_read1ByteRegister@d2(COMMON[1]), 
		 -> i2c_write1ByteRegister@data(COMMON[1]), I2C1_ReadDataBlock@bufferBlock(COMMON[3]), I2C1_Write2ByteRegister@data(COMMON[2]), I2C1_Write1ByteRegister@data(BANK0[1]), 
		 -> I2C1_Read2ByteRegister@returnValue(COMMON[2]), NULL(NULL[0]), I2C1_Read1ByteRegister@returnValue(BANK0[1]), 

    rd2RegCompleteHandler@i2c_simple_master$F1276@p	PTR void  size(1) Largest target is 4
		 -> i2c_readDataBlock@d(COMMON[3]), i2c_write2ByteRegister@data(COMMON[2]), i2c_read2ByteRegister@result(COMMON[2]), i2c_read1ByteRegister@d2(COMMON[1]), 
		 -> i2c_write1ByteRegister@data(COMMON[1]), I2C1_ReadDataBlock@bufferBlock(COMMON[3]), I2C1_Write2ByteRegister@data(COMMON[2]), I2C1_Write1ByteRegister@data(BANK0[1]), 
		 -> I2C1_Read2ByteRegister@returnValue(COMMON[2]), NULL(NULL[0]), I2C1_Read1ByteRegister@returnValue(BANK0[1]), 

    rd1RegCompleteHandler@i2c_simple_master$F1268@p	PTR void  size(1) Largest target is 4
		 -> i2c_readDataBlock@d(COMMON[3]), i2c_write2ByteRegister@data(COMMON[2]), i2c_read2ByteRegister@result(COMMON[2]), i2c_read1ByteRegister@d2(COMMON[1]), 
		 -> i2c_write1ByteRegister@data(COMMON[1]), I2C1_ReadDataBlock@bufferBlock(COMMON[3]), I2C1_Write2ByteRegister@data(COMMON[2]), I2C1_Write1ByteRegister@data(BANK0[1]), 
		 -> I2C1_Read2ByteRegister@returnValue(COMMON[2]), NULL(NULL[0]), I2C1_Read1ByteRegister@returnValue(BANK0[1]), 

    wr1RegCompleteHandler@i2c_simple_master$F1258@p	PTR void  size(1) Largest target is 4
		 -> i2c_readDataBlock@d(COMMON[3]), i2c_write2ByteRegister@data(COMMON[2]), i2c_read2ByteRegister@result(COMMON[2]), i2c_read1ByteRegister@d2(COMMON[1]), 
		 -> i2c_write1ByteRegister@data(COMMON[1]), I2C1_ReadDataBlock@bufferBlock(COMMON[3]), I2C1_Write2ByteRegister@data(COMMON[2]), I2C1_Write1ByteRegister@data(BANK0[1]), 
		 -> I2C1_Read2ByteRegister@returnValue(COMMON[2]), NULL(NULL[0]), I2C1_Read1ByteRegister@returnValue(BANK0[1]), 

    I2C1_SetCallback@ptr	PTR void  size(1) Largest target is 4
		 -> i2c_readDataBlock@d(COMMON[3]), i2c_write2ByteRegister@data(COMMON[2]), i2c_read2ByteRegister@result(COMMON[2]), i2c_read1ByteRegister@d2(COMMON[1]), 
		 -> i2c_write1ByteRegister@data(COMMON[1]), I2C1_ReadDataBlock@bufferBlock(COMMON[3]), I2C1_Write2ByteRegister@data(COMMON[2]), I2C1_Write1ByteRegister@data(BANK0[1]), 
		 -> I2C1_Read2ByteRegister@returnValue(COMMON[2]), NULL(NULL[0]), I2C1_Read1ByteRegister@returnValue(BANK0[1]), 

    I2C1_SetCallback@cb	PTR FTN(PTR void ,)enum E360 size(2) Largest target is 1
		 -> rdBlkRegCompleteHandler@i2c_simple_master$F1288(), wr2RegCompleteHandler@i2c_simple_master$F1282(), rd2RegCompleteHandler@i2c_simple_master$F1276(), rd1RegCompleteHandler@i2c_simple_master$F1268(), 
		 -> wr1RegCompleteHandler@i2c_simple_master$F1258(), rdBlkRegCompleteHandler(), wr2RegCompleteHandler(), wr1RegCompleteHandler(), 
		 -> rd2RegCompleteHandler(), rd1RegCompleteHandler(), Absolute function(), 

    I2C1_SetAddressNackCallback@ptr	PTR void  size(1) Largest target is 0
		 -> NULL(NULL[0]), 

    I2C1_SetAddressNackCallback@cb	PTR FTN(PTR void ,)enum E360 size(2) Largest target is 1
		 -> Absolute function(), 

    I2C1_SetDataCompleteCallback@ptr	PTR void  size(1) Largest target is 4
		 -> i2c_readDataBlock@d(COMMON[3]), i2c_write2ByteRegister@data(COMMON[2]), i2c_read2ByteRegister@result(COMMON[2]), i2c_read1ByteRegister@d2(COMMON[1]), 
		 -> i2c_write1ByteRegister@data(COMMON[1]), I2C1_ReadDataBlock@bufferBlock(COMMON[3]), I2C1_Write2ByteRegister@data(COMMON[2]), I2C1_Write1ByteRegister@data(BANK0[1]), 
		 -> I2C1_Read2ByteRegister@returnValue(COMMON[2]), NULL(NULL[0]), I2C1_Read1ByteRegister@returnValue(BANK0[1]), 

    I2C1_SetDataCompleteCallback@cb	PTR FTN(PTR void ,)enum E360 size(2) Largest target is 1
		 -> rdBlkRegCompleteHandler@i2c_simple_master$F1288(), wr2RegCompleteHandler@i2c_simple_master$F1282(), rd2RegCompleteHandler@i2c_simple_master$F1276(), rd1RegCompleteHandler@i2c_simple_master$F1268(), 
		 -> wr1RegCompleteHandler@i2c_simple_master$F1258(), rdBlkRegCompleteHandler(), wr2RegCompleteHandler(), wr1RegCompleteHandler(), 
		 -> rd2RegCompleteHandler(), rd1RegCompleteHandler(), Absolute function(), 

    I2C1_SetBuffer@buffer	PTR void  size(1) Largest target is 4
		 -> i2c_readDataBlock@reg(COMMON[1]), i2c_readDataBlock@d(COMMON[3]), i2c_write2ByteRegister@reg(COMMON[1]), i2c_write2ByteRegister@data(COMMON[2]), 
		 -> i2c_read2ByteRegister@reg(COMMON[1]), i2c_read2ByteRegister@result(COMMON[2]), i2c_read1ByteRegister@reg(COMMON[1]), i2c_read1ByteRegister@d2(COMMON[1]), 
		 -> i2c_write1ByteRegister@reg(COMMON[1]), i2c_write1ByteRegister@data(COMMON[1]), I2C1_ReadDataBlock@reg(COMMON[1]), I2C1_ReadDataBlock@bufferBlock(COMMON[3]), 
		 -> I2C1_Write2ByteRegister@reg(COMMON[1]), I2C1_Write2ByteRegister@data(COMMON[2]), I2C1_Write1ByteRegister@reg(BANK0[1]), I2C1_Write1ByteRegister@data(BANK0[1]), 
		 -> I2C1_Read2ByteRegister@reg(COMMON[1]), I2C1_Read2ByteRegister@returnValue(COMMON[2]), NULL(NULL[0]), I2C1_Read1ByteRegister@reg(BANK0[1]), 
		 -> I2C1_Read1ByteRegister@returnValue(BANK0[1]), 

    S754$data_ptr	PTR unsigned char  size(1) Largest target is 4
		 -> i2c_readDataBlock@reg(COMMON[1]), i2c_readDataBlock@d(COMMON[3]), i2c_write2ByteRegister@reg(COMMON[1]), i2c_write2ByteRegister@data(COMMON[2]), 
		 -> i2c_read2ByteRegister@reg(COMMON[1]), i2c_read2ByteRegister@result(COMMON[2]), i2c_read1ByteRegister@reg(COMMON[1]), i2c_read1ByteRegister@d2(COMMON[1]), 
		 -> i2c_write1ByteRegister@reg(COMMON[1]), i2c_write1ByteRegister@data(COMMON[1]), I2C1_ReadDataBlock@reg(COMMON[1]), I2C1_ReadDataBlock@bufferBlock(COMMON[3]), 
		 -> I2C1_Write2ByteRegister@reg(COMMON[1]), I2C1_Write2ByteRegister@data(COMMON[2]), I2C1_Write1ByteRegister@reg(BANK0[1]), I2C1_Write1ByteRegister@data(BANK0[1]), 
		 -> I2C1_Read2ByteRegister@reg(COMMON[1]), I2C1_Read2ByteRegister@returnValue(COMMON[2]), NULL(NULL[0]), I2C1_Read1ByteRegister@reg(BANK0[1]), 
		 -> I2C1_Read1ByteRegister@returnValue(BANK0[1]), 

    I2C1_Status.data_ptr	PTR unsigned char  size(1) Largest target is 4
		 -> i2c_readDataBlock@reg(COMMON[1]), i2c_readDataBlock@d(COMMON[3]), i2c_write2ByteRegister@reg(COMMON[1]), i2c_write2ByteRegister@data(COMMON[2]), 
		 -> i2c_read2ByteRegister@reg(COMMON[1]), i2c_read2ByteRegister@result(COMMON[2]), i2c_read1ByteRegister@reg(COMMON[1]), i2c_read1ByteRegister@d2(COMMON[1]), 
		 -> i2c_write1ByteRegister@reg(COMMON[1]), i2c_write1ByteRegister@data(COMMON[1]), I2C1_ReadDataBlock@reg(COMMON[1]), I2C1_ReadDataBlock@bufferBlock(COMMON[3]), 
		 -> I2C1_Write2ByteRegister@reg(COMMON[1]), I2C1_Write2ByteRegister@data(COMMON[2]), I2C1_Write1ByteRegister@reg(BANK0[1]), I2C1_Write1ByteRegister@data(BANK0[1]), 
		 -> I2C1_Read2ByteRegister@reg(COMMON[1]), I2C1_Read2ByteRegister@returnValue(COMMON[2]), NULL(NULL[0]), I2C1_Read1ByteRegister@reg(BANK0[1]), 
		 -> I2C1_Read1ByteRegister@returnValue(BANK0[1]), 

    S754$callbackPayload	PTR void [6] size(1) Largest target is 4
		 -> i2c_readDataBlock@d(COMMON[3]), i2c_write2ByteRegister@data(COMMON[2]), i2c_read2ByteRegister@result(COMMON[2]), i2c_read1ByteRegister@d2(COMMON[1]), 
		 -> i2c_write1ByteRegister@data(COMMON[1]), I2C1_ReadDataBlock@bufferBlock(COMMON[3]), I2C1_Write2ByteRegister@data(COMMON[2]), I2C1_Write1ByteRegister@data(BANK0[1]), 
		 -> I2C1_Read2ByteRegister@returnValue(COMMON[2]), NULL(NULL[0]), I2C1_Read1ByteRegister@returnValue(BANK0[1]), 

    I2C1_Status.callbackPayload	PTR void [6] size(1) Largest target is 4
		 -> i2c_readDataBlock@d(COMMON[3]), i2c_write2ByteRegister@data(COMMON[2]), i2c_read2ByteRegister@result(COMMON[2]), i2c_read1ByteRegister@d2(COMMON[1]), 
		 -> i2c_write1ByteRegister@data(COMMON[1]), I2C1_ReadDataBlock@bufferBlock(COMMON[3]), I2C1_Write2ByteRegister@data(COMMON[2]), I2C1_Write1ByteRegister@data(BANK0[1]), 
		 -> I2C1_Read2ByteRegister@returnValue(COMMON[2]), NULL(NULL[0]), I2C1_Read1ByteRegister@returnValue(BANK0[1]), 

    S754$callbackTable	PTR FTN(PTR void ,)enum E360[6] size(2) Largest target is 1
		 -> rdBlkRegCompleteHandler@i2c_simple_master$F1288(), wr2RegCompleteHandler@i2c_simple_master$F1282(), rd2RegCompleteHandler@i2c_simple_master$F1276(), rd1RegCompleteHandler@i2c_simple_master$F1268(), 
		 -> wr1RegCompleteHandler@i2c_simple_master$F1258(), I2C1_CallbackReturnReset(), I2C1_CallbackReturnStop(), rdBlkRegCompleteHandler(), 
		 -> wr2RegCompleteHandler(), wr1RegCompleteHandler(), rd2RegCompleteHandler(), rd1RegCompleteHandler(), 
		 -> Absolute function(), 

    I2C1_Status.callbackTable	PTR FTN(PTR void ,)enum E360[6] size(2) Largest target is 1
		 -> rdBlkRegCompleteHandler@i2c_simple_master$F1288(), wr2RegCompleteHandler@i2c_simple_master$F1282(), rd2RegCompleteHandler@i2c_simple_master$F1276(), rd1RegCompleteHandler@i2c_simple_master$F1268(), 
		 -> wr1RegCompleteHandler@i2c_simple_master$F1258(), I2C1_CallbackReturnReset(), I2C1_CallbackReturnStop(), rdBlkRegCompleteHandler(), 
		 -> wr2RegCompleteHandler(), wr1RegCompleteHandler(), rd2RegCompleteHandler(), rd1RegCompleteHandler(), 
		 -> Absolute function(), 

    i2c1_fsmStateTable	const PTR FTN()enum E3009[16] size(2) Largest target is 1
		 -> I2C1_DO_ADDRESS_NACK(), I2C1_DO_RESET(), I2C1_DO_RX_NACK_RESTART(), I2C1_DO_RX_NACK_STOP(), 
		 -> I2C1_DO_RX_ACK(), I2C1_DO_SEND_STOP(), I2C1_DO_SEND_RESTART(), I2C1_DO_SEND_RESTART_WRITE(), 
		 -> I2C1_DO_SEND_RESTART_READ(), I2C1_DO_TX_EMPTY(), I2C1_DO_RCEN(), I2C1_DO_RX(), 
		 -> I2C1_DO_TX(), I2C1_DO_SEND_ADR_WRITE(), I2C1_DO_SEND_ADR_READ(), I2C1_DO_IDLE(), 

    rdBlkRegCompleteHandler@ptr.data	PTR unsigned char  size(1) Largest target is 0

    rdBlkRegCompleteHandler@ptr	PTR void  size(1) Largest target is 4
		 -> i2c_readDataBlock@d(COMMON[3]), i2c_write2ByteRegister@data(COMMON[2]), i2c_read2ByteRegister@result(COMMON[2]), i2c_read1ByteRegister@d2(COMMON[1]), 
		 -> i2c_write1ByteRegister@data(COMMON[1]), I2C1_ReadDataBlock@bufferBlock(COMMON[3]), I2C1_Write2ByteRegister@data(COMMON[2]), I2C1_Write1ByteRegister@data(BANK0[1]), 
		 -> I2C1_Read2ByteRegister@returnValue(COMMON[2]), NULL(NULL[0]), I2C1_Read1ByteRegister@returnValue(BANK0[1]), 

    wr2RegCompleteHandler@ptr	PTR void  size(1) Largest target is 4
		 -> i2c_readDataBlock@d(COMMON[3]), i2c_write2ByteRegister@data(COMMON[2]), i2c_read2ByteRegister@result(COMMON[2]), i2c_read1ByteRegister@d2(COMMON[1]), 
		 -> i2c_write1ByteRegister@data(COMMON[1]), I2C1_ReadDataBlock@bufferBlock(COMMON[3]), I2C1_Write2ByteRegister@data(COMMON[2]), I2C1_Write1ByteRegister@data(BANK0[1]), 
		 -> I2C1_Read2ByteRegister@returnValue(COMMON[2]), NULL(NULL[0]), I2C1_Read1ByteRegister@returnValue(BANK0[1]), 

    wr1RegCompleteHandler@ptr	PTR void  size(1) Largest target is 4
		 -> i2c_readDataBlock@d(COMMON[3]), i2c_write2ByteRegister@data(COMMON[2]), i2c_read2ByteRegister@result(COMMON[2]), i2c_read1ByteRegister@d2(COMMON[1]), 
		 -> i2c_write1ByteRegister@data(COMMON[1]), I2C1_ReadDataBlock@bufferBlock(COMMON[3]), I2C1_Write2ByteRegister@data(COMMON[2]), I2C1_Write1ByteRegister@data(BANK0[1]), 
		 -> I2C1_Read2ByteRegister@returnValue(COMMON[2]), NULL(NULL[0]), I2C1_Read1ByteRegister@returnValue(BANK0[1]), 

    rd2RegCompleteHandler@ptr	PTR void  size(1) Largest target is 4
		 -> i2c_readDataBlock@d(COMMON[3]), i2c_write2ByteRegister@data(COMMON[2]), i2c_read2ByteRegister@result(COMMON[2]), i2c_read1ByteRegister@d2(COMMON[1]), 
		 -> i2c_write1ByteRegister@data(COMMON[1]), I2C1_ReadDataBlock@bufferBlock(COMMON[3]), I2C1_Write2ByteRegister@data(COMMON[2]), I2C1_Write1ByteRegister@data(BANK0[1]), 
		 -> I2C1_Read2ByteRegister@returnValue(COMMON[2]), NULL(NULL[0]), I2C1_Read1ByteRegister@returnValue(BANK0[1]), 

    rd1RegCompleteHandler@ptr	PTR void  size(1) Largest target is 4
		 -> i2c_readDataBlock@d(COMMON[3]), i2c_write2ByteRegister@data(COMMON[2]), i2c_read2ByteRegister@result(COMMON[2]), i2c_read1ByteRegister@d2(COMMON[1]), 
		 -> i2c_write1ByteRegister@data(COMMON[1]), I2C1_ReadDataBlock@bufferBlock(COMMON[3]), I2C1_Write2ByteRegister@data(COMMON[2]), I2C1_Write1ByteRegister@data(BANK0[1]), 
		 -> I2C1_Read2ByteRegister@returnValue(COMMON[2]), NULL(NULL[0]), I2C1_Read1ByteRegister@returnValue(BANK0[1]), 

    S602$data	PTR unsigned char  size(1) Largest target is 0

    bufferBlock.data	PTR unsigned char  size(1) Largest target is 0

    IOCBF7_SetInterruptHandler@InterruptHandler	PTR FTN()void  size(2) Largest target is 1
		 -> IOCBF7_DefaultInterruptHandler(), ButtonInterrupt(), 

    IOCBF7_InterruptHandler	PTR FTN()void  size(2) Largest target is 1
		 -> Absolute function(), IOCBF7_DefaultInterruptHandler(), ButtonInterrupt(), 


Critical Paths under _main in COMMON

    _main->_EPWM1_LoadDutyValue
    _main->_EPWM2_LoadDutyValue
    _main->_PWM4_LoadDutyValue
    _PIN_MANAGER_Initialize->_IOCBF7_SetInterruptHandler
    _I2C1_Write1ByteRegister->_I2C1_SetBuffer
    _I2C1_Read1ByteRegister->_I2C1_SetBuffer
    _I2C1_SetAddressNackCallback->_I2C1_SetCallback
    _I2C1_DO_SEND_ADR_WRITE->_I2C1_MasterSendTxData
    _wr2RegCompleteHandler@i2c_simple_master$F1282->_I2C1_SetBuffer
    _wr2RegCompleteHandler->_I2C1_SetBuffer
    _wr1RegCompleteHandler@i2c_simple_master$F1258->_I2C1_SetBuffer
    _wr1RegCompleteHandler->_I2C1_SetBuffer
    _rdBlkRegCompleteHandler@i2c_simple_master$F1288->_I2C1_SetBuffer
    _rdBlkRegCompleteHandler->_I2C1_SetBuffer
    _rd2RegCompleteHandler@i2c_simple_master$F1276->_I2C1_SetBuffer
    _rd2RegCompleteHandler->_I2C1_SetBuffer
    _rd1RegCompleteHandler@i2c_simple_master$F1268->_I2C1_SetBuffer
    _rd1RegCompleteHandler->_I2C1_SetBuffer
    _I2C1_SetDataCompleteCallback->_I2C1_SetCallback

Critical Paths under _INTERRUPT_InterruptManager in COMMON

    _ButtonInterrupt->i1_EPWM1_LoadDutyValue
    _ButtonInterrupt->i1_EPWM2_LoadDutyValue
    _ButtonInterrupt->i1_PWM4_LoadDutyValue

Critical Paths under _main in BANK0

    _main->_I2C1_Read1ByteRegister
    _main->_I2C1_Write1ByteRegister
    _I2C1_SetAddressNackCallback->_I2C1_SetCallback
    _I2C1_MasterWrite->_I2C1_MasterOperation
    _I2C1_Poller->_I2C1_MasterFsm
    _I2C1_MasterFsm->_I2C1_DO_ADDRESS_NACK
    _I2C1_MasterFsm->_I2C1_DO_RX
    _I2C1_MasterFsm->_I2C1_DO_TX
    _I2C1_MasterFsm->_I2C1_DO_TX_EMPTY
    _I2C1_DO_TX_EMPTY->_I2C1_CallbackReturnReset
    _I2C1_DO_TX_EMPTY->_I2C1_CallbackReturnStop
    _I2C1_DO_TX_EMPTY->_rd1RegCompleteHandler
    _I2C1_DO_TX_EMPTY->_rd1RegCompleteHandler@i2c_simple_master$F1268
    _I2C1_DO_TX_EMPTY->_rd2RegCompleteHandler
    _I2C1_DO_TX_EMPTY->_rd2RegCompleteHandler@i2c_simple_master$F1276
    _I2C1_DO_TX_EMPTY->_rdBlkRegCompleteHandler
    _I2C1_DO_TX_EMPTY->_rdBlkRegCompleteHandler@i2c_simple_master$F1288
    _I2C1_DO_TX_EMPTY->_wr1RegCompleteHandler
    _I2C1_DO_TX_EMPTY->_wr1RegCompleteHandler@i2c_simple_master$F1258
    _I2C1_DO_TX_EMPTY->_wr2RegCompleteHandler
    _I2C1_DO_TX_EMPTY->_wr2RegCompleteHandler@i2c_simple_master$F1282
    _I2C1_DO_TX->_I2C1_CallbackReturnReset
    _I2C1_DO_TX->_I2C1_CallbackReturnStop
    _I2C1_DO_TX->_rd1RegCompleteHandler
    _I2C1_DO_TX->_rd1RegCompleteHandler@i2c_simple_master$F1268
    _I2C1_DO_TX->_rd2RegCompleteHandler
    _I2C1_DO_TX->_rd2RegCompleteHandler@i2c_simple_master$F1276
    _I2C1_DO_TX->_rdBlkRegCompleteHandler
    _I2C1_DO_TX->_rdBlkRegCompleteHandler@i2c_simple_master$F1288
    _I2C1_DO_TX->_wr1RegCompleteHandler
    _I2C1_DO_TX->_wr1RegCompleteHandler@i2c_simple_master$F1258
    _I2C1_DO_TX->_wr2RegCompleteHandler
    _I2C1_DO_TX->_wr2RegCompleteHandler@i2c_simple_master$F1282
    _I2C1_DO_RX->_I2C1_CallbackReturnReset
    _I2C1_DO_RX->_I2C1_CallbackReturnStop
    _I2C1_DO_RX->_rd1RegCompleteHandler
    _I2C1_DO_RX->_rd1RegCompleteHandler@i2c_simple_master$F1268
    _I2C1_DO_RX->_rd2RegCompleteHandler
    _I2C1_DO_RX->_rd2RegCompleteHandler@i2c_simple_master$F1276
    _I2C1_DO_RX->_rdBlkRegCompleteHandler
    _I2C1_DO_RX->_rdBlkRegCompleteHandler@i2c_simple_master$F1288
    _I2C1_DO_RX->_wr1RegCompleteHandler
    _I2C1_DO_RX->_wr1RegCompleteHandler@i2c_simple_master$F1258
    _I2C1_DO_RX->_wr2RegCompleteHandler
    _I2C1_DO_RX->_wr2RegCompleteHandler@i2c_simple_master$F1282
    _I2C1_DO_ADDRESS_NACK->_I2C1_CallbackReturnReset
    _I2C1_DO_ADDRESS_NACK->_I2C1_CallbackReturnStop
    _I2C1_DO_ADDRESS_NACK->_rd1RegCompleteHandler
    _I2C1_DO_ADDRESS_NACK->_rd1RegCompleteHandler@i2c_simple_master$F1268
    _I2C1_DO_ADDRESS_NACK->_rd2RegCompleteHandler
    _I2C1_DO_ADDRESS_NACK->_rd2RegCompleteHandler@i2c_simple_master$F1276
    _I2C1_DO_ADDRESS_NACK->_rdBlkRegCompleteHandler
    _I2C1_DO_ADDRESS_NACK->_rdBlkRegCompleteHandler@i2c_simple_master$F1288
    _I2C1_DO_ADDRESS_NACK->_wr1RegCompleteHandler
    _I2C1_DO_ADDRESS_NACK->_wr1RegCompleteHandler@i2c_simple_master$F1258
    _I2C1_DO_ADDRESS_NACK->_wr2RegCompleteHandler
    _I2C1_DO_ADDRESS_NACK->_wr2RegCompleteHandler@i2c_simple_master$F1282
    _wr2RegCompleteHandler@i2c_simple_master$F1282->_I2C1_SetDataCompleteCallback
    _wr2RegCompleteHandler->_I2C1_SetDataCompleteCallback
    _wr1RegCompleteHandler@i2c_simple_master$F1258->_I2C1_SetDataCompleteCallback
    _wr1RegCompleteHandler->_I2C1_SetDataCompleteCallback
    _rdBlkRegCompleteHandler@i2c_simple_master$F1288->_I2C1_SetDataCompleteCallback
    _rdBlkRegCompleteHandler->_I2C1_SetDataCompleteCallback
    _rd2RegCompleteHandler@i2c_simple_master$F1276->_I2C1_SetDataCompleteCallback
    _rd2RegCompleteHandler->_I2C1_SetDataCompleteCallback
    _rd1RegCompleteHandler@i2c_simple_master$F1268->_I2C1_SetDataCompleteCallback
    _rd1RegCompleteHandler->_I2C1_SetDataCompleteCallback
    _I2C1_SetDataCompleteCallback->_I2C1_SetCallback

Critical Paths under _INTERRUPT_InterruptManager in BANK0

    None.

Critical Paths under _main in BANK1

    None.

Critical Paths under _INTERRUPT_InterruptManager in BANK1

    None.

Critical Paths under _main in BANK2

    None.

Critical Paths under _INTERRUPT_InterruptManager in BANK2

    None.

Critical Paths under _main in BANK3

    None.

Critical Paths under _INTERRUPT_InterruptManager in BANK3

    None.

Critical Paths under _main in BANK4

    None.

Critical Paths under _INTERRUPT_InterruptManager in BANK4

    None.

Critical Paths under _main in BANK5

    None.

Critical Paths under _INTERRUPT_InterruptManager in BANK5

    None.

Critical Paths under _main in BANK6

    None.

Critical Paths under _INTERRUPT_InterruptManager in BANK6

    None.

Critical Paths under _main in BANK7

    None.

Critical Paths under _INTERRUPT_InterruptManager in BANK7

    None.

Critical Paths under _main in BANK8

    None.

Critical Paths under _INTERRUPT_InterruptManager in BANK8

    None.

Critical Paths under _main in BANK9

    None.

Critical Paths under _INTERRUPT_InterruptManager in BANK9

    None.

Critical Paths under _main in BANK10

    None.

Critical Paths under _INTERRUPT_InterruptManager in BANK10

    None.

Critical Paths under _main in BANK11

    None.

Critical Paths under _INTERRUPT_InterruptManager in BANK11

    None.

Critical Paths under _main in BANK12

    None.

Critical Paths under _INTERRUPT_InterruptManager in BANK12

    None.

Call Graph Tables:

 ---------------------------------------------------------------------------------
 (Depth) Function   	        Calls       Base Space   Used Autos Params    Refs
 ---------------------------------------------------------------------------------
 (0) _main                                                 8     8      0  626657
                                             19 BANK0      6     6      0
                 _DELAY_milliseconds
                _EPWM1_LoadDutyValue
                _EPWM2_LoadDutyValue
             _I2C1_Read1ByteRegister
            _I2C1_Write1ByteRegister
         _IOCBF7_SetInterruptHandler
                 _PWM4_LoadDutyValue
                  _SYSTEM_Initialize
 ---------------------------------------------------------------------------------
 (1) _SYSTEM_Initialize                                    0     0      0     174
                   _EPWM1_Initialize
                   _EPWM2_Initialize
                    _I2C1_Initialize
              _OSCILLATOR_Initialize
             _PIN_MANAGER_Initialize
                    _PWM4_Initialize
                    _TMR2_Initialize
                     _WDT_Initialize
 ---------------------------------------------------------------------------------
 (2) _WDT_Initialize                                       0     0      0       0
 ---------------------------------------------------------------------------------
 (2) _TMR2_Initialize                                      0     0      0       0
 ---------------------------------------------------------------------------------
 (2) _PWM4_Initialize                                      0     0      0       0
 ---------------------------------------------------------------------------------
 (2) _PIN_MANAGER_Initialize                               0     0      0     174
         _IOCBF7_SetInterruptHandler
 ---------------------------------------------------------------------------------
 (3) _IOCBF7_SetInterruptHandler                           2     0      2     174
                                              4 COMMON     2     0      2
 ---------------------------------------------------------------------------------
 (2) _OSCILLATOR_Initialize                                0     0      0       0
 ---------------------------------------------------------------------------------
 (2) _I2C1_Initialize                                      0     0      0       0
 ---------------------------------------------------------------------------------
 (2) _EPWM2_Initialize                                     0     0      0       0
 ---------------------------------------------------------------------------------
 (2) _EPWM1_Initialize                                     0     0      0       0
 ---------------------------------------------------------------------------------
 (1) _PWM4_LoadDutyValue                                   4     2      2     398
                                              4 COMMON     4     2      2
 ---------------------------------------------------------------------------------
 (1) _I2C1_Write1ByteRegister                              4     2      2  312533
                                             15 BANK0      4     2      2
                         _I2C1_Close
                   _I2C1_MasterWrite
                          _I2C1_Open
        _I2C1_SetAddressNackCallback
                     _I2C1_SetBuffer
       _I2C1_SetDataCompleteCallback
 ---------------------------------------------------------------------------------
 (1) _I2C1_Read1ByteRegister                               4     3      1  311937
                                             15 BANK0      4     3      1
                         _I2C1_Close
                   _I2C1_MasterWrite
                          _I2C1_Open
        _I2C1_SetAddressNackCallback
                     _I2C1_SetBuffer
       _I2C1_SetDataCompleteCallback
 ---------------------------------------------------------------------------------
 (2) _I2C1_SetAddressNackCallback                          4     1      3    3339
                                              1 BANK0      4     1      3
                   _I2C1_SetCallback
 ---------------------------------------------------------------------------------
 (2) _I2C1_Open                                            3     3      0      46
                                              4 COMMON     3     3      0
                _I2C1_MasterClearIrq
                    _I2C1_MasterOpen
 ---------------------------------------------------------------------------------
 (3) _I2C1_MasterOpen                                      0     0      0       0
 ---------------------------------------------------------------------------------
 (2) _I2C1_MasterWrite                                     0     0      0  300482
               _I2C1_MasterOperation
 ---------------------------------------------------------------------------------
 (3) _I2C1_MasterOperation                                 3     3      0  300482
                                             12 BANK0      3     3      0
                   _I2C1_MasterStart
                        _I2C1_Poller
 ---------------------------------------------------------------------------------
 (4) _I2C1_Poller                                          0     0      0  300414
                     _I2C1_MasterFsm
            _I2C1_MasterWaitForEvent
 ---------------------------------------------------------------------------------
 (5) _I2C1_MasterWaitForEvent                              0     0      0       0
 ---------------------------------------------------------------------------------
 (5) _I2C1_MasterFsm                                       3     3      0  300414
                                              9 BANK0      3     3      0
               _I2C1_DO_ADDRESS_NACK *
                       _I2C1_DO_IDLE *
                       _I2C1_DO_RCEN *
                      _I2C1_DO_RESET *
                         _I2C1_DO_RX *
                     _I2C1_DO_RX_ACK *
            _I2C1_DO_RX_NACK_RESTART *
               _I2C1_DO_RX_NACK_STOP *
              _I2C1_DO_SEND_ADR_READ *
             _I2C1_DO_SEND_ADR_WRITE *
               _I2C1_DO_SEND_RESTART *
          _I2C1_DO_SEND_RESTART_READ *
         _I2C1_DO_SEND_RESTART_WRITE *
                  _I2C1_DO_SEND_STOP *
                         _I2C1_DO_TX *
                   _I2C1_DO_TX_EMPTY *
                _I2C1_MasterClearIrq
                  _I2C1_MasterIsNack
 ---------------------------------------------------------------------------------
 (6) _I2C1_DO_TX_EMPTY                                     3     3      0   75087
                                              6 BANK0      3     3      0
                   Absolute function *
           _I2C1_CallbackReturnReset *
            _I2C1_CallbackReturnStop *
               _I2C1_DO_SEND_RESTART
                  _I2C1_DO_SEND_STOP
                  _I2C1_MasterSetIrq
              _rd1RegCompleteHandler *
_rd1RegCompleteHandler@i2c_simple_ma *
              _rd2RegCompleteHandler *
_rd2RegCompleteHandler@i2c_simple_ma *
            _rdBlkRegCompleteHandler *
_rdBlkRegCompleteHandler@i2c_simple_ *
              _wr1RegCompleteHandler *
_wr1RegCompleteHandler@i2c_simple_ma *
              _wr2RegCompleteHandler *
_wr2RegCompleteHandler@i2c_simple_ma *
 ---------------------------------------------------------------------------------
 (7) _I2C1_MasterSetIrq                                    0     0      0       0
 ---------------------------------------------------------------------------------
 (6) _I2C1_DO_TX                                           3     3      0   75109
                                              6 BANK0      3     3      0
                   Absolute function *
           _I2C1_CallbackReturnReset *
            _I2C1_CallbackReturnStop *
          _I2C1_DO_SEND_RESTART_READ
         _I2C1_DO_SEND_RESTART_WRITE
                  _I2C1_DO_SEND_STOP
                  _I2C1_MasterIsNack
              _I2C1_MasterSendTxData
              _rd1RegCompleteHandler *
_rd1RegCompleteHandler@i2c_simple_ma *
              _rd2RegCompleteHandler *
_rd2RegCompleteHandler@i2c_simple_ma *
            _rdBlkRegCompleteHandler *
_rdBlkRegCompleteHandler@i2c_simple_ *
              _wr1RegCompleteHandler *
_wr1RegCompleteHandler@i2c_simple_ma *
              _wr2RegCompleteHandler *
_wr2RegCompleteHandler@i2c_simple_ma *
 ---------------------------------------------------------------------------------
 (6) _I2C1_MasterIsNack                                    0     0      0       0
 ---------------------------------------------------------------------------------
 (7) _I2C1_DO_SEND_RESTART_WRITE                           0     0      0       0
           _I2C1_MasterEnableRestart
 ---------------------------------------------------------------------------------
 (7) _I2C1_DO_SEND_RESTART_READ                            0     0      0       0
           _I2C1_MasterEnableRestart
 ---------------------------------------------------------------------------------
 (6) _I2C1_DO_SEND_ADR_WRITE                               0     0      0      22
              _I2C1_MasterSendTxData
 ---------------------------------------------------------------------------------
 (6) _I2C1_DO_SEND_ADR_READ                                0     0      0      22
              _I2C1_MasterSendTxData
 ---------------------------------------------------------------------------------
 (7) _I2C1_MasterSendTxData                                1     1      0      22
                                              4 COMMON     1     1      0
 ---------------------------------------------------------------------------------
 (6) _I2C1_DO_RX_ACK                                       0     0      0       0
                 _I2C1_MasterSendAck
 ---------------------------------------------------------------------------------
 (6) _I2C1_DO_RX                                           3     3      0   75087
                                              6 BANK0      3     3      0
                   Absolute function *
           _I2C1_CallbackReturnReset *
            _I2C1_CallbackReturnStop *
            _I2C1_DO_RX_NACK_RESTART
               _I2C1_DO_RX_NACK_STOP
               _I2C1_MasterGetRxData
                 _I2C1_MasterSendAck
              _rd1RegCompleteHandler *
_rd1RegCompleteHandler@i2c_simple_ma *
              _rd2RegCompleteHandler *
_rd2RegCompleteHandler@i2c_simple_ma *
            _rdBlkRegCompleteHandler *
_rdBlkRegCompleteHandler@i2c_simple_ *
              _wr1RegCompleteHandler *
_wr1RegCompleteHandler@i2c_simple_ma *
              _wr2RegCompleteHandler *
_wr2RegCompleteHandler@i2c_simple_ma *
 ---------------------------------------------------------------------------------
 (7) _I2C1_MasterSendAck                                   0     0      0       0
 ---------------------------------------------------------------------------------
 (7) _I2C1_MasterGetRxData                                 0     0      0       0
 ---------------------------------------------------------------------------------
 (6) _I2C1_DO_RX_NACK_STOP                                 0     0      0       0
                _I2C1_MasterSendNack
 ---------------------------------------------------------------------------------
 (6) _I2C1_DO_RX_NACK_RESTART                              0     0      0       0
                _I2C1_MasterSendNack
 ---------------------------------------------------------------------------------
 (7) _I2C1_MasterSendNack                                  0     0      0       0
 ---------------------------------------------------------------------------------
 (6) _I2C1_DO_RESET                                        0     0      0       0
 ---------------------------------------------------------------------------------
 (6) _I2C1_DO_RCEN                                         0     0      0       0
                 _I2C1_MasterStartRx
 ---------------------------------------------------------------------------------
 (7) _I2C1_MasterStartRx                                   0     0      0       0
 ---------------------------------------------------------------------------------
 (6) _I2C1_DO_IDLE                                         0     0      0       0
 ---------------------------------------------------------------------------------
 (6) _I2C1_DO_ADDRESS_NACK                                 3     3      0   75087
                                              6 BANK0      3     3      0
                   Absolute function *
           _I2C1_CallbackReturnReset *
            _I2C1_CallbackReturnStop *
               _I2C1_DO_SEND_RESTART
                  _I2C1_DO_SEND_STOP
              _rd1RegCompleteHandler *
_rd1RegCompleteHandler@i2c_simple_ma *
              _rd2RegCompleteHandler *
_rd2RegCompleteHandler@i2c_simple_ma *
            _rdBlkRegCompleteHandler *
_rdBlkRegCompleteHandler@i2c_simple_ *
              _wr1RegCompleteHandler *
_wr1RegCompleteHandler@i2c_simple_ma *
              _wr2RegCompleteHandler *
_wr2RegCompleteHandler@i2c_simple_ma *
 ---------------------------------------------------------------------------------
 (7) _wr2RegCompleteHandler@i2c_simple_master$F1282        1     0      1    7470
                                              5 BANK0      1     0      1
                     _I2C1_SetBuffer
       _I2C1_SetDataCompleteCallback
 ---------------------------------------------------------------------------------
 (7) _wr2RegCompleteHandler                                1     0      1    7470
                                              5 BANK0      1     0      1
                     _I2C1_SetBuffer
       _I2C1_SetDataCompleteCallback
 ---------------------------------------------------------------------------------
 (7) _wr1RegCompleteHandler@i2c_simple_master$F1258        1     0      1    7470
                                              5 BANK0      1     0      1
                     _I2C1_SetBuffer
       _I2C1_SetDataCompleteCallback
 ---------------------------------------------------------------------------------
 (7) _wr1RegCompleteHandler                                1     0      1    7470
                                              5 BANK0      1     0      1
                     _I2C1_SetBuffer
       _I2C1_SetDataCompleteCallback
 ---------------------------------------------------------------------------------
 (7) _rdBlkRegCompleteHandler@i2c_simple_master$F1288      1     0      1    7826
                                              5 BANK0      1     0      1
                     _I2C1_SetBuffer
       _I2C1_SetDataCompleteCallback
 ---------------------------------------------------------------------------------
 (7) _rdBlkRegCompleteHandler                              1     0      1    7501
                                              5 BANK0      1     0      1
                     _I2C1_SetBuffer
       _I2C1_SetDataCompleteCallback
 ---------------------------------------------------------------------------------
 (7) _rd2RegCompleteHandler@i2c_simple_master$F1276        1     0      1    7470
                                              5 BANK0      1     0      1
                     _I2C1_SetBuffer
       _I2C1_SetDataCompleteCallback
 ---------------------------------------------------------------------------------
 (7) _rd2RegCompleteHandler                                1     0      1    7470
                                              5 BANK0      1     0      1
                     _I2C1_SetBuffer
       _I2C1_SetDataCompleteCallback
 ---------------------------------------------------------------------------------
 (7) _rd1RegCompleteHandler@i2c_simple_master$F1268        1     0      1    7470
                                              5 BANK0      1     0      1
                     _I2C1_SetBuffer
       _I2C1_SetDataCompleteCallback
 ---------------------------------------------------------------------------------
 (7) _rd1RegCompleteHandler                                1     0      1    7470
                                              5 BANK0      1     0      1
                     _I2C1_SetBuffer
       _I2C1_SetDataCompleteCallback
 ---------------------------------------------------------------------------------
 (2) _I2C1_SetDataCompleteCallback                         4     1      3    4779
                                              1 BANK0      4     1      3
                   _I2C1_SetCallback
 ---------------------------------------------------------------------------------
 (3) _I2C1_SetCallback                                     5     2      3    1117
                                              4 COMMON     4     1      3
                                              0 BANK0      1     1      0
 ---------------------------------------------------------------------------------
 (2) _I2C1_SetBuffer                                       4     2      2    2660
                                              4 COMMON     4     2      2
 ---------------------------------------------------------------------------------
 (7) _I2C1_DO_SEND_STOP                                    0     0      0       0
                    _I2C1_MasterStop
 ---------------------------------------------------------------------------------
 (8) _I2C1_MasterStop                                      0     0      0       0
 ---------------------------------------------------------------------------------
 (7) _I2C1_DO_SEND_RESTART                                 0     0      0       0
           _I2C1_MasterEnableRestart
 ---------------------------------------------------------------------------------
 (8) _I2C1_MasterEnableRestart                             0     0      0       0
 ---------------------------------------------------------------------------------
 (7) _I2C1_CallbackReturnStop                              1     0      1       0
                                              5 BANK0      1     0      1
 ---------------------------------------------------------------------------------
 (7) _I2C1_CallbackReturnReset                             1     0      1       0
                                              5 BANK0      1     0      1
 ---------------------------------------------------------------------------------
 (13) Absolute function(Fake)                              0     0      0       0
 ---------------------------------------------------------------------------------
 (4) _I2C1_MasterStart                                     0     0      0       0
 ---------------------------------------------------------------------------------
 (2) _I2C1_Close                                           2     2      0      24
                                              4 COMMON     2     2      0
                _I2C1_MasterClearIrq
                   _I2C1_MasterClose
              _I2C1_MasterDisableIrq
 ---------------------------------------------------------------------------------
 (3) _I2C1_MasterDisableIrq                                0     0      0       0
 ---------------------------------------------------------------------------------
 (3) _I2C1_MasterClose                                     0     0      0       0
 ---------------------------------------------------------------------------------
 (3) _I2C1_MasterClearIrq                                  0     0      0       0
 ---------------------------------------------------------------------------------
 (1) _EPWM2_LoadDutyValue                                  4     2      2     398
                                              4 COMMON     4     2      2
 ---------------------------------------------------------------------------------
 (1) _EPWM1_LoadDutyValue                                  4     2      2     322
                                              4 COMMON     4     2      2
 ---------------------------------------------------------------------------------
 (1) _DELAY_milliseconds                                   3     1      2     300
                                              4 COMMON     3     1      2
 ---------------------------------------------------------------------------------
 Estimated maximum stack depth 13
 ---------------------------------------------------------------------------------
 (Depth) Function   	        Calls       Base Space   Used Autos Params    Refs
 ---------------------------------------------------------------------------------
 (10) _INTERRUPT_InterruptManager                          0     0      0     258
                    _PIN_MANAGER_IOC
 ---------------------------------------------------------------------------------
 (11) _PIN_MANAGER_IOC                                     0     0      0     258
                         _IOCBF7_ISR
 ---------------------------------------------------------------------------------
 (12) _IOCBF7_ISR                                          0     0      0     258
                   Absolute function *
                    _ButtonInterrupt *
     _IOCBF7_DefaultInterruptHandler *
 ---------------------------------------------------------------------------------
 (13) _IOCBF7_DefaultInterruptHandler                      0     0      0       0
 ---------------------------------------------------------------------------------
 (13) _ButtonInterrupt                                     0     0      0     258
               i1_DELAY_milliseconds
              i1_EPWM1_LoadDutyValue
              i1_EPWM2_LoadDutyValue
               i1_PWM4_LoadDutyValue
 ---------------------------------------------------------------------------------
 (14) i1_PWM4_LoadDutyValue                                4     2      2      70
                                              0 COMMON     4     2      2
 ---------------------------------------------------------------------------------
 (14) i1_EPWM2_LoadDutyValue                               4     2      2      70
                                              0 COMMON     4     2      2
 ---------------------------------------------------------------------------------
 (14) i1_EPWM1_LoadDutyValue                               4     2      2      70
                                              0 COMMON     4     2      2
 ---------------------------------------------------------------------------------
 (14) i1_DELAY_milliseconds                                3     1      2      48
                                              0 COMMON     3     1      2
 ---------------------------------------------------------------------------------
 (13) Absolute function(Fake)                              0     0      0       0
 ---------------------------------------------------------------------------------
 Estimated maximum stack depth 14
 ---------------------------------------------------------------------------------

 Call Graph Graphs:

 _main (ROOT)
   _DELAY_milliseconds
   _EPWM1_LoadDutyValue
   _EPWM2_LoadDutyValue
   _I2C1_Read1ByteRegister
     _I2C1_Close
       _I2C1_MasterClearIrq
       _I2C1_MasterClose
       _I2C1_MasterDisableIrq
     _I2C1_MasterWrite
       _I2C1_MasterOperation
         _I2C1_MasterStart
         _I2C1_Poller
           _I2C1_MasterFsm
             _I2C1_DO_ADDRESS_NACK *
               Absolute function(Fake) *
               _I2C1_CallbackReturnReset *
               _I2C1_CallbackReturnStop *
               _I2C1_DO_SEND_RESTART *
                 _I2C1_MasterEnableRestart
               _I2C1_DO_SEND_STOP *
                 _I2C1_MasterStop
               _rd1RegCompleteHandler *
                 _I2C1_SetBuffer
                 _I2C1_SetDataCompleteCallback
                   _I2C1_SetCallback
               _rd1RegCompleteHandler@i2c_simple_master$F1268 *
                 _I2C1_SetBuffer
                 _I2C1_SetDataCompleteCallback
               _rd2RegCompleteHandler *
                 _I2C1_SetBuffer
                 _I2C1_SetDataCompleteCallback
               _rd2RegCompleteHandler@i2c_simple_master$F1276 *
                 _I2C1_SetBuffer
                 _I2C1_SetDataCompleteCallback
               _rdBlkRegCompleteHandler *
                 _I2C1_SetBuffer
                 _I2C1_SetDataCompleteCallback
               _rdBlkRegCompleteHandler@i2c_simple_master$F1288 *
                 _I2C1_SetBuffer
                 _I2C1_SetDataCompleteCallback
               _wr1RegCompleteHandler *
                 _I2C1_SetBuffer
                 _I2C1_SetDataCompleteCallback
               _wr1RegCompleteHandler@i2c_simple_master$F1258 *
                 _I2C1_SetBuffer
                 _I2C1_SetDataCompleteCallback
               _wr2RegCompleteHandler *
                 _I2C1_SetBuffer
                 _I2C1_SetDataCompleteCallback
               _wr2RegCompleteHandler@i2c_simple_master$F1282 *
                 _I2C1_SetBuffer
                 _I2C1_SetDataCompleteCallback
             _I2C1_DO_IDLE *
             _I2C1_DO_RCEN *
               _I2C1_MasterStartRx
             _I2C1_DO_RESET *
             _I2C1_DO_RX *
               Absolute function(Fake) *
               _I2C1_CallbackReturnReset *
               _I2C1_CallbackReturnStop *
               _I2C1_DO_RX_NACK_RESTART *
                 _I2C1_MasterSendNack
               _I2C1_DO_RX_NACK_STOP *
                 _I2C1_MasterSendNack
               _I2C1_MasterGetRxData *
               _I2C1_MasterSendAck *
               _rd1RegCompleteHandler *
               _rd1RegCompleteHandler@i2c_simple_master$F1268 *
               _rd2RegCompleteHandler *
               _rd2RegCompleteHandler@i2c_simple_master$F1276 *
               _rdBlkRegCompleteHandler *
               _rdBlkRegCompleteHandler@i2c_simple_master$F1288 *
               _wr1RegCompleteHandler *
               _wr1RegCompleteHandler@i2c_simple_master$F1258 *
               _wr2RegCompleteHandler *
               _wr2RegCompleteHandler@i2c_simple_master$F1282 *
             _I2C1_DO_RX_ACK *
               _I2C1_MasterSendAck
             _I2C1_DO_RX_NACK_RESTART *
             _I2C1_DO_RX_NACK_STOP *
             _I2C1_DO_SEND_ADR_READ *
               _I2C1_MasterSendTxData
             _I2C1_DO_SEND_ADR_WRITE *
               _I2C1_MasterSendTxData
             _I2C1_DO_SEND_RESTART *
             _I2C1_DO_SEND_RESTART_READ *
               _I2C1_MasterEnableRestart
             _I2C1_DO_SEND_RESTART_WRITE *
               _I2C1_MasterEnableRestart
             _I2C1_DO_SEND_STOP *
             _I2C1_DO_TX *
               Absolute function(Fake) *
               _I2C1_CallbackReturnReset *
               _I2C1_CallbackReturnStop *
               _I2C1_DO_SEND_RESTART_READ *
               _I2C1_DO_SEND_RESTART_WRITE *
               _I2C1_DO_SEND_STOP *
               _I2C1_MasterIsNack *
               _I2C1_MasterSendTxData *
               _rd1RegCompleteHandler *
               _rd1RegCompleteHandler@i2c_simple_master$F1268 *
               _rd2RegCompleteHandler *
               _rd2RegCompleteHandler@i2c_simple_master$F1276 *
               _rdBlkRegCompleteHandler *
               _rdBlkRegCompleteHandler@i2c_simple_master$F1288 *
               _wr1RegCompleteHandler *
               _wr1RegCompleteHandler@i2c_simple_master$F1258 *
               _wr2RegCompleteHandler *
               _wr2RegCompleteHandler@i2c_simple_master$F1282 *
             _I2C1_DO_TX_EMPTY *
               Absolute function(Fake) *
               _I2C1_CallbackReturnReset *
               _I2C1_CallbackReturnStop *
               _I2C1_DO_SEND_RESTART *
               _I2C1_DO_SEND_STOP *
               _I2C1_MasterSetIrq *
               _rd1RegCompleteHandler *
               _rd1RegCompleteHandler@i2c_simple_master$F1268 *
               _rd2RegCompleteHandler *
               _rd2RegCompleteHandler@i2c_simple_master$F1276 *
               _rdBlkRegCompleteHandler *
               _rdBlkRegCompleteHandler@i2c_simple_master$F1288 *
               _wr1RegCompleteHandler *
               _wr1RegCompleteHandler@i2c_simple_master$F1258 *
               _wr2RegCompleteHandler *
               _wr2RegCompleteHandler@i2c_simple_master$F1282 *
             _I2C1_MasterClearIrq *
             _I2C1_MasterIsNack *
           _I2C1_MasterWaitForEvent
     _I2C1_Open
       _I2C1_MasterClearIrq
       _I2C1_MasterOpen
     _I2C1_SetAddressNackCallback
       _I2C1_SetCallback
     _I2C1_SetBuffer
     _I2C1_SetDataCompleteCallback
   _I2C1_Write1ByteRegister
     _I2C1_Close
     _I2C1_MasterWrite
     _I2C1_Open
     _I2C1_SetAddressNackCallback
     _I2C1_SetBuffer
     _I2C1_SetDataCompleteCallback
   _IOCBF7_SetInterruptHandler
   _PWM4_LoadDutyValue
   _SYSTEM_Initialize
     _EPWM1_Initialize
     _EPWM2_Initialize
     _I2C1_Initialize
     _OSCILLATOR_Initialize
     _PIN_MANAGER_Initialize
       _IOCBF7_SetInterruptHandler
     _PWM4_Initialize
     _TMR2_Initialize
     _WDT_Initialize

 _INTERRUPT_InterruptManager (ROOT)
   _PIN_MANAGER_IOC
     _IOCBF7_ISR
       Absolute function(Fake) *
       _ButtonInterrupt *
         i1_DELAY_milliseconds
         i1_EPWM1_LoadDutyValue
         i1_EPWM2_LoadDutyValue
         i1_PWM4_LoadDutyValue
       _IOCBF7_DefaultInterruptHandler *

 Address spaces:
Name               Size   Autos  Total    Cost      Usage
BIGRAM             3F0      0       0       0        0.0%
EEDATA             100      0       0       0        0.0%
NULL                 0      0       0       0        0.0%
CODE                 0      0       0       0        0.0%
BITCOMMON            E      0       0       1        0.0%
BITSFR0              0      0       0       1        0.0%
SFR0                 0      0       0       1        0.0%
COMMON               E      8       A       2       71.4%
BITSFR1              0      0       0       2        0.0%
SFR1                 0      0       0       2        0.0%
BITSFR2              0      0       0       3        0.0%
SFR2                 0      0       0       3        0.0%
STACK                0      0       0       3        0.0%
BITBANK0            50      0       0       4        0.0%
BITSFR3              0      0       0       4        0.0%
SFR3                 0      0       0       4        0.0%
BANK0               50     19      36       5       67.5%
BITSFR4              0      0       0       5        0.0%
SFR4                 0      0       0       5        0.0%
BITBANK1            50      0       0       6        0.0%
BITSFR5              0      0       0       6        0.0%
SFR5                 0      0       0       6        0.0%
BANK1               50      0       0       7        0.0%
BITSFR6              0      0       0       7        0.0%
SFR6                 0      0       0       7        0.0%
BITBANK2            50      0       0       8        0.0%
BITSFR7              0      0       0       8        0.0%
SFR7                 0      0       0       8        0.0%
BANK2               50      0       0       9        0.0%
BITSFR8              0      0       0       9        0.0%
SFR8                 0      0       0       9        0.0%
BITBANK3            50      0       0      10        0.0%
BITSFR9              0      0       0      10        0.0%
SFR9                 0      0       0      10        0.0%
BANK3               50      0       0      11        0.0%
BITSFR10             0      0       0      11        0.0%
SFR10                0      0       0      11        0.0%
BITBANK4            50      0       0      12        0.0%
BITSFR11             0      0       0      12        0.0%
SFR11                0      0       0      12        0.0%
BANK4               50      0       0      13        0.0%
BITSFR12             0      0       0      13        0.0%
SFR12                0      0       0      13        0.0%
BITBANK5            50      0       0      14        0.0%
BITSFR13             0      0       0      14        0.0%
SFR13                0      0       0      14        0.0%
BANK5               50      0       0      15        0.0%
BITSFR14             0      0       0      15        0.0%
SFR14                0      0       0      15        0.0%
BITBANK6            50      0       0      16        0.0%
BITSFR15             0      0       0      16        0.0%
SFR15                0      0       0      16        0.0%
BANK6               50      0       0      17        0.0%
BITSFR16             0      0       0      17        0.0%
SFR16                0      0       0      17        0.0%
BITBANK7            50      0       0      18        0.0%
BITSFR17             0      0       0      18        0.0%
SFR17                0      0       0      18        0.0%
BANK7               50      0       0      19        0.0%
BITSFR18             0      0       0      19        0.0%
SFR18                0      0       0      19        0.0%
BITSFR19             0      0       0      20        0.0%
SFR19                0      0       0      20        0.0%
ABS                  0      0      40      20        0.0%
BITBANK8            50      0       0      21        0.0%
BITSFR20             0      0       0      21        0.0%
SFR20                0      0       0      21        0.0%
BANK8               50      0       0      22        0.0%
BITSFR21             0      0       0      22        0.0%
SFR21                0      0       0      22        0.0%
BITBANK9            50      0       0      23        0.0%
BITSFR22             0      0       0      23        0.0%
SFR22                0      0       0      23        0.0%
BANK9               50      0       0      24        0.0%
BITSFR23             0      0       0      24        0.0%
SFR23                0      0       0      24        0.0%
BITBANK10           50      0       0      25        0.0%
BITSFR24             0      0       0      25        0.0%
SFR24                0      0       0      25        0.0%
BANK10              50      0       0      26        0.0%
BITSFR25             0      0       0      26        0.0%
SFR25                0      0       0      26        0.0%
BITBANK11           50      0       0      27        0.0%
BITSFR26             0      0       0      27        0.0%
SFR26                0      0       0      27        0.0%
BANK11              50      0       0      28        0.0%
BITSFR27             0      0       0      28        0.0%
SFR27                0      0       0      28        0.0%
BITBANK12           30      0       0      29        0.0%
BITSFR28             0      0       0      29        0.0%
SFR28                0      0       0      29        0.0%
BANK12              30      0       0      30        0.0%
BITSFR29             0      0       0      30        0.0%
SFR29                0      0       0      30        0.0%
BITSFR30             0      0       0      31        0.0%
SFR30                0      0       0      31        0.0%
DATA                 0      0      40      31        0.0%
BITSFR31             0      0       0      32        0.0%
SFR31                0      0       0      32        0.0%


Microchip Technology PIC Macro Assembler V2.32 build 20210201212658 
Symbol Table                                                                                   Wed Jul 28 12:07:52 2021

                            __size_of_EPWM2_LoadDutyValue 0017  
                                                      l32 05F3  
                                                      l35 05F8  
                                                      l52 0445  
                                                      l29 042E  
                                                      l38 0686  
                                                      l49 0602  
                                                      l90 0061  
                                                      l91 00C3  
                                  ??i1_PWM4_LoadDutyValue 0072  
                                                     l120 059A  
                                                     l123 045C  
                                                     l203 064B  
                                                     l140 05A8  
                                                     l143 0473  
                                                     l306 0291  
                                                     l219 0625  
                                                     l500 05B6  
                                                     l246 04CE  
                                                     l511 0369  
                                                     l351 0543  
                                                     l600 065F  
                                                     l192 0342  
                                                     l345 0569  
                                                     l521 0319  
                                                     l354 0530  
                                                     l530 062D  
                                                     l603 065A  
                                                     l348 0556  
                                                     l620 06AD  
                                                     l524 067D  
                                                     l612 02EE  
                                                     l357 0415  
                                                     l533 0189  
                                                     l517 05EC  
                                                     l550 01EC  
                                                     l606 0655  
                                                     l623 06AB  
                                                     l711 051D  
                                                     l527 0614  
                                                     l472 03E1  
                                                     l536 01A5  
                                                     l288 025D  
                                                     l464 060B  
                                                     l561 0634  
                                                     l633 05DF  
                                                     l642 0682  
                                                     l491 058C  
                                                     l651 0697  
                                                     l467 0225  
                                                     l636 06A6  
                                                     l732 050A  
                                                     l660 0646  
                                                     l484 0650  
                                                     l468 0226  
                                                     l645 069D  
                                                     l549 01C3  
                                                     l654 06A0  
                                                     l494 05C4  
                                                     l478 03A8  
                                                     l639 0694  
                                                     l663 068A  
                                                     l567 02C1  
                                                     l591 066E  
                                                     l681 06A3  
                                                     l657 069A  
                                                     l585 0678  
                                                     l666 068E  
                                                     l594 0669  
                                                     l690 063B  
                                                     l747 04F7  
                                                     l771 03FB  
                                                     l684 06A9  
                                                     l588 0673  
                                                     l597 0664  
                                                     l694 0640  
                                                     l759 057C  
                                                     l687 0691  
                                                     _PR2 001B  
                                                     u710 0640  
                                                     u711 063F  
                                                     u820 05F8  
                                                     u821 05F7  
                                                     u670 0583  
                                                     u671 0582  
                                                     u840 01F5  
                                                     u841 01F4  
                                                     u850 03CD  
                                                     u851 03CC  
                                                     u870 04CE  
                                                     u790 05D8  
                                                     u871 04CD  
                                                     u791 05D7  
                                                     u865 043E  
                                                     u885 0455  
                                                     u895 046C  
                              __end_of_DELAY_milliseconds 04CF  
                                   ?_I2C1_MasterOperation 0070  
                                         _TMR2_Initialize 061E  
                                         _PWM4_Initialize 05F9  
                                                     wreg 0009  
                                  ?_I2C1_MasterSendTxData 0070  
                       __size_of_I2C1_MasterEnableRestart 0003  
                                __end_of_EPWM2_Initialize 059B  
                                    _I2C1_DO_RX_NACK_STOP 065B  
                               ?_I2C1_MasterEnableRestart 0070  
                      __end_of_IOCBF7_SetInterruptHandler 064C  
                              _IOCBF7_SetInterruptHandler 0647  
                                    I2C1_SetBuffer@buffer 0077  
                                 ??_rd2RegCompleteHandler 0078  
                                                    l2400 069B  
                                                    l2402 0698  
                                                    l2500 06AA  
                                                    l2404 068B  
                                                    l3320 035C  
                                                    l3400 0150  
                                                    l3322 05B7  
                                                    l2450 0674  
                                                    l3316 0345  
                                                    l3324 0557  
                                                    l3332 0544  
                                                    l3340 0531  
                                                    l2444 0641  
                                                    l3420 018B  
                                                    l3412 0161  
                                                    l3404 0159  
                                                    l2452 0677  
                                                    l2542 06A7  
                                                    l2710 069E  
                                                    l3318 034B  
                                                    l3326 0560  
                                                    l3334 054D  
                                                    l3342 053A  
                                                    l3350 0527  
                                                    l3422 0197  
                                                    l2462 0665  
                                                    l3502 02D1  
                                                    l3510 02F2  
                                                    l3328 0568  
                                                    l3336 0555  
                                                    l3344 0542  
                                                    l3352 052F  
                                                    l2472 0687  
                                                    l2448 067F  
                                                    l2544 0679  
                                                    l2552 060C  
                                                    l2560 0626  
                                                    l3424 01A2  
                                                    l3408 015D  
                                                    l3440 01BE  
                                                    l2632 062E  
                                                    l2456 066F  
                                                    l2464 0668  
                                                    l2480 065B  
                                                    l3512 02F7  
                                                    l3520 05E1  
                                                    l2800 0331  
                                                    l3600 0039  
                                                    l2394 057E  
                                                    l3362 050B  
                                                    l3370 04F8  
                                                    l2546 067B  
                                                    l2554 060E  
                                                    l2562 0628  
                                                    l3426 01A4  
                                                    l3418 0165  
                                                    l3442 01C1  
                                                    l3434 01A6  
                                                    l2634 0630  
                                                    l2458 0672  
                                                    l2490 066D  
                                                    l2482 065E  
                                                    l2474 0656  
                                                    l3514 02FF  
                                                    l3522 05E4  
                                                    l3530 0393  
                                                    l2810 0339  
                                                    l2802 0333  
                                                    l3610 0068  
                                                    l3602 003F  
                                                    l2396 0583  
                                                    l3348 051E  
                                                    l3356 03FC  
                                                    l3364 0514  
                                                    l3372 0501  
                                                    l3380 04EE  
                                                    l2468 0692  
                                                    l2548 067C  
                                                    l2556 0613  
                                                    l2564 062C  
                                                    l3452 01C9  
                                                    l3436 01B0  
                                                    l2636 0633  
                                                    l2476 0659  
                                                    l3516 0304  
                                                    l3508 02EF  
                                                    l3524 05E7  
                                                    l3540 03A3  
                                                    l3532 0394  
                                                    l2740 05D9  
                                                    l2820 05F1  
                                                    l2732 0647  
                                                    l2812 033A  
                                                    l2804 0335  
                                                    l3620 0109  
                                                    l3612 0075  
                                                    l3604 004C  
                                                    l2750 06A4  
                                                    l2910 03CE  
                                                    l2398 058B  
                                                    l3390 057B  
                                                    l3358 0414  
                                                    l3366 051C  
                                                    l3374 0509  
                                                    l3382 04F6  
                                                    l2486 0695  
                                                    l2494 068F  
                                                    l3470 0299  
                                                    l3438 01B4  
                                                    l2670 0651  
                                                    l3518 05E0  
                                                    l3534 0399  
                                                    l3542 03A6  
                                                    l3526 038C  
                                                    l2742 05DB  
                                                    l2830 0593  
                                                    l2814 0341  
                                                    l2806 0336  
                                                    l2822 0683  
                                                    l3630 013C  
                                                    l3622 0111  
                                                    l3614 00E8  
                                                    l3606 0052  
                                                    l2912 03D2  
                                                    l2920 03E0  
                                                    l2496 06AC  
                                                    l3472 029C  
                                                    l3464 0292  
                                                    l3448 01C5  
                                                    l2488 066A  
                                                    l2664 0660  
                                                    l2672 0653  
                                                    l3536 039C  
                                                    l3528 0392  
                                                    l2744 05DE  
                                                    l2736 05D3  
                                                    l3560 0248  
                                                    l3552 0229  
                                                    l2840 059F  
                                                    l2832 0595  
                                                    l2824 058D  
                                                    l2816 05ED  
                                                    l2808 0338  
                                                    l3624 011A  
                                                    l3616 00EF  
                                                    l3608 005A  
                                                    l2930 04BA  
                                                    l2914 03D5  
                                                    l2906 03C6  
                                                    l3386 056A  
                                                    l3378 04E5  
                                                    l3394 03E2  
                                                    l3466 0295  
                                                    l3482 02A2  
                                                    l3458 01CD  
                                                    l2666 0663  
                                                    l2674 0654  
                                                    l3490 02C4  
                                                    l3538 03A0  
                                                    l2738 05D8  
                                                    l3546 05A9  
                                                    l3562 0250  
                                                    l3554 022A  
                                                    l3570 0260  
                                                    l2842 05A1  
                                                    l2834 0598  
                                                    l2826 0590  
                                                    l2818 05F0  
                                                    l2850 05FE  
                                                    l3626 012B  
                                                    l3618 00F8  
                                                    l2932 04C2  
                                                    l2748 06A1  
                                                    l2916 03D8  
                                                    l2908 03CD  
                                                    l3388 0573  
                                                    l3396 03FA  
                                                    l3476 029E  
                                                    l3492 02C9  
                                                    l3548 064C  
                                                    l3564 0253  
                                                    l3556 0234  
                                                    l3580 0286  
                                                    l3572 0260  
                                                    l2844 05A3  
                                                    l2836 059B  
                                                    l2828 0591  
                                                    l2772 0603  
                                                    l2780 031A  
                                                    l2852 05FF  
                                                    l2860 0623  
                                                    l2924 0416  
                                                    l3628 0133  
                                                    l2934 0446  
                                                    l2918 03DB  
                                                    l3910 02E6  
                                                    l2870 01F5  
                                                    l3566 025B  
                                                    l3558 0240  
                                                    l3582 0289  
                                                    l3574 026A  
                                                    l2926 042F  
                                                    l2846 05A6  
                                                    l2838 059E  
                                                    l2774 0605  
                                                    l2790 0328  
                                                    l2782 031E  
                                                    l2854 061E  
                                                    l3590 002B  
                                                    l2928 04B9  
                                                    l2936 045D  
                                                    l3912 01DE  
                                                    l3496 02CD  
                                                    l3488 02C2  
                                                    l2880 0209  
                                                    l2872 01F9  
                                                    l3576 0276  
                                                    l2776 0607  
                                                    l2792 032A  
                                                    l2784 0321  
                                                    l2848 05F9  
                                                    l2856 0621  
                                                    l3592 002C  
                                                    l3914 017B  
                                                    l2890 0219  
                                                    l2882 020A  
                                                    l2874 01FA  
                                                    l3578 027E  
                                                    l2778 060A  
                                                    l2794 032C  
                                                    l2786 0323  
                                                    l2858 0622  
                                                    l3594 002D  
                                                    l3916 02B3  
                                                    l2892 021E  
                                                    l2884 020F  
                                                    l2876 01FB  
                                                    l2868 01EE  
                                                    l2796 032F  
                                                    l2788 0325  
                                                    l3596 002D  
                                                    l3588 0021  
                                                    l2894 0221  
                                                    l2886 0213  
                                                    l2878 0204  
                                                    l2798 0330  
                                                    l3598 0033  
                                                    l2896 0224  
                                                    l2888 0218  
                                                    u1300 01A2  
                                                    u1301 01A1  
                                                    u1310 01BE  
                                                    u1311 01BD  
                                                    u1320 02F7  
                                                    u1400 0291  
                                                    u1321 02F6  
                                                    u1401 0290  
                                                    u1330 02FF  
                                                    u1410 0052  
                                                    u1331 02FE  
                                                    u1411 0051  
                                                    u1340 05EC  
                                                    u1420 00EF  
                                                    u1341 05EB  
                                                    u1421 00EE  
                                                    _LATA 010C  
                                                    u1350 0392  
                                                    u1430 0111  
                                                    _LATB 010D  
                                                    u1351 0391  
                                                    u1431 0110  
                                                    _LATC 010E  
                                                    u1280 034B  
                                                    u1360 0399  
                                                    u1440 0133  
                                                    u1281 034A  
                                                    u1361 0398  
                                                    u1441 0132  
                                                    u1290 0158  
                                                    u1370 0234  
                                                    u1291 0157  
                                                    u1371 0233  
                                                    u1380 025B  
                                                    u1381 025A  
                                                    u1390 026A  
                                                    u1391 0269  
                                                    u1727 04BD  
                                                    i1l52 048A  
                                                    _PLLR 04D6  
                                                    _TMR2 001A  
                                                    _WPUA 020C  
                                                    _WPUB 020D  
                                                    _WPUC 020E  
                                 ??_wr2RegCompleteHandler 0078  
                                        ??_I2C1_MasterFsm 0046  
                        __size_of_I2C1_DO_RX_NACK_RESTART 0005  
                                    i1_DELAY_milliseconds 04CF  
                               ??_I2C1_CallbackReturnStop 0078  
                                                    _main 0021  
                                                    fsr0h 0005  
                                                    fsr1h 0007  
                                                    indf0 0000  
                                                    fsr0l 0004  
                                                    indf1 0001  
                                                    fsr1l 0006  
                                                    btemp 007E  
                                                    start 0013  
                                        ??_I2C1_SetBuffer 0076  
                                   ??_EPWM1_LoadDutyValue 0076  
                        __size_of_rdBlkRegCompleteHandler 001A  
                           I2C1_CallbackReturnStop@funPtr 0042  
                          __size_of_OSCILLATOR_Initialize 000C  
                           __end_of_OSCILLATOR_Initialize 05F9  
                                     __size_of_IOCBF7_ISR 000E  
                                       __end_of_I2C1_Open 0227  
                                 ??i1_EPWM2_LoadDutyValue 0072  
                                                   ?_main 0070  
                          __size_ofi1_EPWM1_LoadDutyValue 0017  
                                                   _T2CON 001C  
                           __end_ofi1_EPWM1_LoadDutyValue 04B9  
                                                   i1l103 03C5  
                                                   i1l200 05D2  
                                                   i1l123 04A1  
                                                   i1l206 06AE  
                                                   i1l143 04B8  
                                                   i1l246 04E4  
                                                   i1l196 061D  
                                                   i1l800 0011  
                              __end_of_i2c1_fsmStateTable 038A  
                                      _PWM4_LoadDutyValue 042F  
                                                   _TRISA 008C  
                                                   _TRISB 008D  
                                                   _TRISC 008E  
                                  ??_I2C1_MasterGetRxData 0074  
                                                   u83_20 05CB  
                                                   u83_21 05CA  
                                                   u75_25 0483  
                                                   u76_25 049A  
                                                   u77_25 04B1  
                                                   u78_20 04E4  
                                                   u94_20 061A  
                                                   u78_21 04E3  
                                                   u94_21 0619  
                                   ?_I2C1_DO_RX_NACK_STOP 0070  
                              ??_I2C1_CallbackReturnReset 0078  
                                       ??_I2C1_MasterOpen 0074  
                                       ??_I2C1_MasterStop 0074  
                                       ??_I2C1_Initialize 0074  
                                 __end_of_PIN_MANAGER_IOC 061E  
                                          _WDT_Initialize 0683  
                                     ?_PWM4_LoadDutyValue 0074  
                                   ?i1_DELAY_milliseconds 0070  
                                                   pclath 000A  
                                                   status 0003  
                             __size_of_I2C1_MasterSendAck 0004  
                                                   wtemp0 007E  
                                            ??_I2C1_DO_RX 0043  
                                            ??_I2C1_DO_TX 0043  
                                  ??_I2C1_DO_ADDRESS_NACK 0043  
                                            ??_I2C1_Close 0074  
                             __size_of_I2C1_MasterStartRx 0003  
                                         __initialization 0015  
                                            __end_of_main 0150  
                                    ??_PWM4_LoadDutyValue 0076  
                                 __end_of_PWM4_Initialize 0603  
                                 __end_of_TMR2_Initialize 0626  
                             ?_INTERRUPT_InterruptManager 0070  
                                  ??_I2C1_MasterOperation 0049  
                                                  ??_main 0050  
                                __size_of_ButtonInterrupt 001D  
                           __size_of_I2C1_DO_SEND_RESTART 0005  
                                      __end_of_I2C1_DO_RX 01ED  
                                      __end_of_I2C1_DO_TX 01A6  
                                  __end_of_WDT_Initialize 0687  
                                      __end_of_I2C1_Close 03E2  
                                 ?_I2C1_Read1ByteRegister 004C  
                                                  _CCP2AS 029C  
                                                  _CCPR1H 0292  
                                                  _CCPR2H 0299  
                                                  _CCPR1L 0291  
                                                  _CCPR4H 0319  
                                                  _CCPR2L 0298  
                                                  _CCPR4L 0318  
                                                  _ANSELA 018C  
                                                  _ANSELB 018D  
                                                  _ANSELC 018E  
                                                  _BORCON 0116  
                                                  i1l3230 0006  
                                                  i1l3232 000A  
                                                  i1l3234 000E  
                                                  i1l2720 0474  
                                                  i1l2730 04D8  
                                                  i1l2722 048B  
                                                  i1l2724 04A2  
                                                  i1l2726 04CF  
                                                  i1l2734 03A9  
                                                  i1l2728 04D0  
                                                  i1l2862 05C5  
                                                  i1l2864 05CB  
                                                  i1l2866 05D0  
                                                  i1l2970 0615  
                                                  i1l2972 061A  
                    __size_of_I2C1_SetAddressNackCallback 000E  
                                                  u126_20 000A  
                                                  u126_21 0009  
                                                  u127_20 000E  
                                                  u127_21 000D  
                                                  u173_27 04D3  
                                                  _OSCCON 0099  
                                                  _WDTCON 0097  
                                       ?_I2C1_MasterClose 0070  
                                 ??_I2C1_MasterDisableIrq 0074  
                                       ?_I2C1_MasterStart 0070  
                                       ?_I2C1_MasterWrite 0070  
                                ?_I2C1_MasterWaitForEvent 0070  
                                      ??_I2C1_MasterClose 0074  
                                        _I2C1_DO_TX_EMPTY 0292  
                                      ??_I2C1_MasterStart 0074  
                                      ??_I2C1_MasterWrite 0078  
                                ?_I2C1_Write1ByteRegister 004C  
                            __size_of_I2C1_MasterClearIrq 0003  
                                ??_I2C1_DO_SEND_ADR_WRITE 0075  
                                       ?_I2C1_SetCallback 0074  
                                  ??_I2C1_DO_RX_NACK_STOP 0074  
                                   _I2C1_DO_SEND_ADR_READ 060C  
                           ?_I2C1_SetDataCompleteCallback 003E  
                                      ??_I2C1_SetCallback 0077  
                          __end_of_I2C1_Read1ByteRegister 025E  
                                         ?_WDT_Initialize 0070  
                                     _EPWM2_LoadDutyValue 0446  
              IOCBF7_SetInterruptHandler@InterruptHandler 0074  
                                        ?_PIN_MANAGER_IOC 0070  
                            __size_of_I2C1_MasterSendNack 0004  
                                  ??i1_DELAY_milliseconds 0072  
                                 _I2C1_DO_RX_NACK_RESTART 0656  
                                            ??_IOCBF7_ISR 0074  
                                       _SYSTEM_Initialize 0416  
                          I2C1_SetDataCompleteCallback@cb 003E  
                                 __end_of__initialization 001D  
                         I2C1_MasterOperation@returnValue 004B  
                                      ?_SYSTEM_Initialize 0070  
                                           ??_I2C1_Poller 0078  
                                 _rdBlkRegCompleteHandler 03FC  
                                       ?_EPWM1_Initialize 0070  
                                          __pcstackCOMMON 0070  
                                    ?_EPWM2_LoadDutyValue 0074  
                                     ??_SYSTEM_Initialize 0076  
                        __end_of_I2C1_MasterEnableRestart 069E  
                                      ??_EPWM1_Initialize 0074  
                                        ?_TMR2_Initialize 0070  
                                        ?_PWM4_Initialize 0070  
                            ??_I2C1_DO_SEND_RESTART_WRITE 0074  
                                 ??_I2C1_MasterSendTxData 0074  
                             PWM4_LoadDutyValue@dutyValue 0074  
                                      __end_of_IOCBF7_ISR 05D3  
                                          _OPTION_REGbits 0095  
                                   __end_of_I2C1_DO_RESET 0656  
                                       ?_EPWM2_Initialize 0070  
                             ?_IOCBF7_SetInterruptHandler 0074  
                                       ??_ButtonInterrupt 0074  
                               __end_of_SYSTEM_Initialize 042F  
                                      ??_EPWM2_Initialize 0074  
                                              __pbssBANK0 0020  
                         __end_of_I2C1_MasterWaitForEvent 0641  
          wr2RegCompleteHandler@i2c_simple_master$F1282@p 0042  
          wr1RegCompleteHandler@i2c_simple_master$F1258@p 0042  
          rd2RegCompleteHandler@i2c_simple_master$F1276@p 0042  
          rd1RegCompleteHandler@i2c_simple_master$F1268@p 0042  
        rdBlkRegCompleteHandler@i2c_simple_master$F1288@p 0042  
                          __size_of_rd2RegCompleteHandler 0013  
                           __end_of_rd2RegCompleteHandler 0557  
                                      _DELAY_milliseconds 04B9  
                                    I2C1_Open@returnValue 0076  
                                              __pnvCOMMON 0078  
                          __size_of_wr2RegCompleteHandler 0013  
                           __end_of_wr2RegCompleteHandler 0531  
                         __end_of_I2C1_Write1ByteRegister 0292  
                                   _rd1RegCompleteHandler 0557  
                                 _IOCBF7_InterruptHandler 0078  
                                       _I2C1_DO_SEND_STOP 0665  
                                   _wr1RegCompleteHandler 0531  
                     __size_of_I2C1_DO_SEND_RESTART_WRITE 0005  
                                     ?_DELAY_milliseconds 0074  
                                              __pmaintext 0021  
                                   ??_EPWM2_LoadDutyValue 0076  
                                rd1RegCompleteHandler@ptr 0042  
                                      ?_I2C1_DO_SEND_STOP 0070  
                                         _I2C1_MasterOpen 05D3  
                                              __pintentry 0004  
                                         _I2C1_MasterStop 0698  
                                         _I2C1_Initialize 0603  
                                                 _CCP1CON 0293  
                                                 _CCP2CON 029A  
                                     __end_of_I2C1_Poller 05ED  
                                                 _CCP4CON 031A  
                                                 _ECCP1AS 0295  
                                 __size_of_I2C1_DO_RX_ACK 0005  
                                                 _APFCON0 011D  
                                                 _APFCON1 011E  
                                  ?_I2C1_DO_SEND_ADR_READ 0070  
                                     ??_I2C1_DO_SEND_STOP 0074  
                          i1EPWM1_LoadDutyValue@dutyValue 0070  
                         __size_of_I2C1_DO_SEND_ADR_WRITE 0008  
                           __size_ofi1_PWM4_LoadDutyValue 0017  
                          __size_ofi1_EPWM2_LoadDutyValue 0017  
                           __end_ofi1_EPWM2_LoadDutyValue 04A2  
                                       _I2C1_MasterIsNack 0641  
                                    ??_DELAY_milliseconds 0076  
                                               _I2C1_Open 01ED  
                               ??_I2C1_DO_RX_NACK_RESTART 0074  
                                                 _OSCTUNE 0098  
                                                 _PWM1CON 0294  
                                                 _PWM2CON 029B  
                                       _I2C1_MasterSetIrq 068F  
                      __size_of_I2C1_DO_SEND_RESTART_READ 0005  
                                                 _SSP1ADD 0212  
                                                 _SSP1BUF 0211  
                                      ?_I2C1_MasterIsNack 0070  
                              ?_I2C1_DO_SEND_RESTART_READ 0070  
                        ??_IOCBF7_DefaultInterruptHandler 0070  
                         ?_IOCBF7_DefaultInterruptHandler 0070  
                          ??_I2C1_SetDataCompleteCallback 0041  
                                      ?_I2C1_MasterSetIrq 0070  
                             __end_of_EPWM1_LoadDutyValue 0474  
                                      _i2c1_fsmStateTable 036A  
                                     ??_I2C1_MasterIsNack 0074  
                               __end_of_I2C1_DO_SEND_STOP 066A  
                               ??_rdBlkRegCompleteHandler 0078  
                                      I2C1_SetCallback@cb 0074  
                                     ??_I2C1_MasterSetIrq 0074  
                                           ?_I2C1_DO_IDLE 0070  
                                           ?_I2C1_DO_RCEN 0070  
                                                 __ptext1 0416  
                                                 __ptext2 0683  
                                                 __ptext3 061E  
                                                 __ptext4 05F9  
                                                 __ptext5 031A  
                                                 __ptext6 0647  
                                                 __ptext7 05ED  
                                                 __ptext8 0603  
                                                 __ptext9 058D  
                                _I2C1_MasterEnableRestart 069B  
                               __end_of_I2C1_MasterIsNack 0647  
                            ?_I2C1_SetAddressNackCallback 003E  
                                   _OSCILLATOR_Initialize 05ED  
                                               _T2CONbits 001C  
                               __end_of_I2C1_MasterSetIrq 0692  
                                __end_of_I2C1_DO_TX_EMPTY 02C2  
                                ??_PIN_MANAGER_Initialize 0076  
                                wr1RegCompleteHandler@ptr 0042  
                                               _IOCBFbits 0396  
                                              ?_I2C1_Open 0070  
                                   i1_EPWM1_LoadDutyValue 04A2  
                                               _IOCBNbits 0395  
                                               _IOCBPbits 0394  
                           __size_of_I2C1_MasterGetRxData 0003  
                                ?_I2C1_CallbackReturnStop 0042  
                              __size_of_SYSTEM_Initialize 0019  
                                                 clrloop0 0636  
                        i1DELAY_milliseconds@milliseconds 0070  
                       __end_of_I2C1_DO_SEND_RESTART_READ 0679  
                                    end_of_initialization 001D  
                              __end_of_I2C1_MasterSendAck 068B  
                                     _I2C1_MasterClearIrq 06A7  
                              __end_of_I2C1_MasterStartRx 0698  
                                  ?_rd1RegCompleteHandler 0042  
                                  _I2C1_DO_SEND_ADR_WRITE 0626  
                            __end_of_I2C1_DO_SEND_RESTART 066F  
                                 __end_of_I2C1_MasterOpen 05E0  
                                  ?_wr1RegCompleteHandler 0042  
                                 __end_of_I2C1_MasterStop 069B  
                                 __end_of_I2C1_Initialize 060C  
                       __size_of_I2C1_CallbackReturnReset 0002  
                                             _I2C1_Poller 05E0  
                          __size_of_I2C1_MasterDisableIrq 0003  
                               ?_I2C1_CallbackReturnReset 0042  
                           __end_of_I2C1_MasterDisableIrq 06A4  
                                             _I2C1_Status 0020  
                           __size_of_I2C1_DO_ADDRESS_NACK 002D  
                                 __size_of_I2C1_MasterFsm 002B  
                                     _I2C1_MasterSendNack 068B  
                     __end_of_I2C1_SetAddressNackCallback 05B7  
                             _I2C1_SetAddressNackCallback 05A9  
                             __size_of_PWM4_LoadDutyValue 0017  
                                    ?_I2C1_MasterClearIrq 0070  
                                          ??_I2C1_DO_IDLE 0074  
                                          ??_I2C1_DO_RCEN 0074  
                      __end_of_I2C1_DO_SEND_RESTART_WRITE 0674  
                              _I2C1_DO_SEND_RESTART_WRITE 066F  
                               __size_of_I2C1_MasterClose 0003  
                                        ??_WDT_Initialize 0074  
                                 __size_of_I2C1_SetBuffer 0010  
                         __end_of_rdBlkRegCompleteHandler 0416  
                        __size_of_I2C1_MasterWaitForEvent 0006  
                               __size_of_I2C1_MasterStart 0003  
                               __size_of_I2C1_MasterWrite 0005  
                           __size_of_I2C1_MasterOperation 001F  
                           ??_I2C1_SetAddressNackCallback 0041  
                               I2C1_Read1ByteRegister@reg 004C  
                        __size_of_I2C1_Write1ByteRegister 0034  
                         I2C1_SetDataCompleteCallback@ptr 0040  
                             I2C1_Write1ByteRegister@data 004D  
                          I2C1_CallbackReturnReset@funPtr 0042  
                                    ?_I2C1_MasterSendNack 0070  
                                              main@data_x 0053  
                                              main@data_y 0054  
                                              main@data_z 0055  
                               __size_of_I2C1_SetCallback 0027  
                              rdBlkRegCompleteHandler@ptr 0042  
                              __size_of_I2C1_DO_SEND_STOP 0005  
                                   ??_I2C1_MasterClearIrq 0074  
                                          _I2C1_DO_RX_ACK 0660  
                                         _ButtonInterrupt 03A9  
                                  ?_OSCILLATOR_Initialize 0070  
                              __size_of_I2C1_MasterIsNack 0006  
                         __end_of_I2C1_CallbackReturnStop 06AE  
                          __size_of_I2C1_MasterSendTxData 0005  
                                  ?i1_EPWM1_LoadDutyValue 0070  
                           __end_of_I2C1_MasterSendTxData 0683  
                              __size_of_I2C1_MasterSetIrq 0003  
                                     start_initialization 0015  
                               __size_of_EPWM1_Initialize 000E  
                                             ??_I2C1_Open 0074  
                           __size_of_I2C1_DO_RX_NACK_STOP 0005  
                         __size_of_PIN_MANAGER_Initialize 0029  
                                   ??_I2C1_MasterSendNack 0074  
                            EPWM1_LoadDutyValue@dutyValue 0074  
                           __size_ofi1_DELAY_milliseconds 0016  
                                I2C1_SetBuffer@bufferSize 0074  
                                __size_of_PIN_MANAGER_IOC 0009  
                                        ?_I2C1_MasterOpen 0070  
                                        ?_I2C1_MasterStop 0070  
                          I2C1_Write1ByteRegister@address 004F  
                                        ?_I2C1_Initialize 0070  
                               __size_of_EPWM2_Initialize 000E  
                                  __end_of_I2C1_DO_RX_ACK 0665  
                                             _CCPTMRSbits 029E  
                                 ??_I2C1_DO_SEND_ADR_READ 0074  
                                        I2C1_Open@address 0075  
                                    _I2C1_DO_SEND_RESTART 066A  
                                               ___latbits 0002  
                                           __pcstackBANK0 003D  
                                __size_of_PWM4_Initialize 000A  
                                __size_of_TMR2_Initialize 0008  
                             ??_I2C1_DO_SEND_RESTART_READ 0074  
                                    __end_of_I2C1_DO_IDLE 067E  
                                    __end_of_I2C1_DO_RCEN 0635  
                             __end_of_EPWM2_LoadDutyValue 045D  
                            __end_ofi1_PWM4_LoadDutyValue 048B  
                           I2C1_SetAddressNackCallback@cb 003E  
                                   _rd2RegCompleteHandler 0544  
                                  _PIN_MANAGER_Initialize 031A  
                                   _wr2RegCompleteHandler 051E  
                                 __end_of_ButtonInterrupt 03C6  
                              ??_I2C1_MasterEnableRestart 0074  
                  __end_of_IOCBF7_DefaultInterruptHandler 06AF  
                 __size_of_IOCBF7_DefaultInterruptHandler 0001  
                          _IOCBF7_DefaultInterruptHandler 06AE  
                                rd2RegCompleteHandler@ptr 0042  
                                          _I2C1_MasterFsm 02EF  
                                  __size_of_I2C1_DO_RESET 0005  
                                         ?_I2C1_DO_RX_ACK 0070  
                           i1PWM4_LoadDutyValue@dutyValue 0070  
                                 _I2C1_MasterWaitForEvent 063B  
                                        _I2C1_MasterClose 06A4  
                                ??_I2C1_Read1ByteRegister 004D  
                                          _I2C1_SetBuffer 057D  
                            ??_INTERRUPT_InterruptManager 0074  
                                        _I2C1_MasterStart 069E  
                                        _I2C1_MasterWrite 064C  
                                 _I2C1_Write1ByteRegister 025E  
                                   ?_I2C1_DO_SEND_RESTART 0070  
                          i1EPWM2_LoadDutyValue@dutyValue 0070  
                                       ?_I2C1_DO_TX_EMPTY 0070  
                             __size_of_DELAY_milliseconds 0016  
                                   i1_EPWM2_LoadDutyValue 048B  
                        __end_of_I2C1_CallbackReturnReset 06AC  
                                      ??_I2C1_DO_TX_EMPTY 0043  
                                 ??_rd1RegCompleteHandler 0078  
                                 ?_I2C1_DO_SEND_ADR_WRITE 0070  
                               I2C1_MasterSendTxData@data 0074  
                                 ??_wr1RegCompleteHandler 0078  
                                        _I2C1_SetCallback 0343  
                                              _I2C1_DO_RX 01A6  
                                              _I2C1_DO_TX 0150  
                                               clear_ram0 0635  
                                                _PIE1bits 0091  
                                              _I2C1_Close 03C6  
                                            ?_I2C1_Poller 0070  
                                  __end_of_I2C1_MasterFsm 031A  
                     __size_of_INTERRUPT_InterruptManager 000F  
                            __end_of_I2C1_MasterGetRxData 0695  
                                                _PIR1bits 0011  
                        __size_of_I2C1_CallbackReturnStop 0002  
                                                _PIR2bits 0012  
                            __size_of_EPWM1_LoadDutyValue 0017  
                                      _I2C1_MasterSendAck 0687  
                          DELAY_milliseconds@milliseconds 0074  
                               _I2C1_DO_SEND_RESTART_READ 0674  
                                                _SSP1CON1 0215  
                                                _SSP1CON2 0216  
                                                _PSTR1CON 0296  
                                                _PSTR2CON 029D  
                                  __end_of_I2C1_SetBuffer 058D  
                                                _SSP1STAT 0214  
                                       ??_PIN_MANAGER_IOC 0074  
                    __end_of_I2C1_SetDataCompleteCallback 05C5  
                   __size_of_I2C1_SetDataCompleteCallback 000E  
                            _I2C1_SetDataCompleteCallback 05B7  
                                      _I2C1_MasterStartRx 0695  
                             ?_I2C1_DO_SEND_RESTART_WRITE 0070  
                              I2C1_Write1ByteRegister@reg 004C  
                                     ?_I2C1_MasterSendAck 0070  
                                ?_I2C1_DO_RX_NACK_RESTART 0070  
                                     ?_I2C1_MasterStartRx 0070  
                            __end_of_I2C1_DO_ADDRESS_NACK 02EF  
                                        _EPWM1_Initialize 059B  
                                wr2RegCompleteHandler@ptr 0042  
                          __end_of_I2C1_DO_SEND_ADR_WRITE 062E  
                                           _I2C1_DO_RESET 0651  
                                   I2C1_Close@returnValue 0075  
                                ?_rdBlkRegCompleteHandler 0042  
                                     I2C1_SetCallback@idx 003D  
                                     I2C1_SetCallback@ptr 0076  
                                    ??_I2C1_MasterSendAck 0074  
                                       ??_TMR2_Initialize 0074  
                                       ??_PWM4_Initialize 0074  
                                  ?_rd2RegCompleteHandler 0042  
                            __end_of_I2C1_MasterOperation 03A9  
                                  ?_wr2RegCompleteHandler 0042  
                                    ??_I2C1_MasterStartRx 0074  
                                         ?_I2C1_MasterFsm 0070  
                                        _EPWM2_Initialize 058D  
                              __end_of_PWM4_LoadDutyValue 0446  
                                        ?_ButtonInterrupt 0070  
                               ??_I2C1_MasterWaitForEvent 0074  
                                   _I2C1_MasterDisableIrq 06A1  
                                 ??_OSCILLATOR_Initialize 0074  
                                         ?_I2C1_SetBuffer 0074  
                                 ??i1_EPWM1_LoadDutyValue 0072  
                               ??_I2C1_Write1ByteRegister 004E  
                         __size_of_I2C1_Read1ByteRegister 0037  
                       I2C1_Read1ByteRegister@returnValue 004F  
                                  ??_I2C1_DO_SEND_RESTART 0074  
                                    i1_PWM4_LoadDutyValue 0474  
                                  ?i1_EPWM2_LoadDutyValue 0070  
                                          ?_I2C1_DO_RESET 0070  
                                   __size_of_I2C1_DO_IDLE 0005  
                                   __size_of_I2C1_DO_RCEN 0007  
                                                __ptext10 059B  
                                                __ptext11 042F  
                                                __ptext20 063B  
                                                __ptext12 025E  
                                                __ptext21 02EF  
                                                __ptext13 0227  
                                                __ptext30 0674  
                                                __ptext22 02C2  
                                                __ptext14 05A9  
                                                __ptext31 062E  
                                                __ptext23 0651  
                                                __ptext15 01ED  
                                                __ptext40 067E  
                                                __ptext32 01A6  
                                                __ptext24 0656  
                                                __ptext16 05D3  
                                                __ptext41 0687  
                                                __ptext33 0150  
                                                __ptext25 065B  
                                                __ptext17 064C  
                                                __ptext50 06AC  
                                                __ptext42 0692  
                                                __ptext34 0626  
                                                __ptext26 0660  
                                                __ptext18 038A  
                                                __ptext51 03FC  
                                                __ptext43 068B  
                                                __ptext35 060C  
                                                __ptext27 0665  
                                                __ptext19 05E0  
                                                __ptext60 0698  
                                                __ptext52 051E  
                                                __ptext44 0695  
                                                __ptext36 0679  
                                                __ptext28 066A  
                                                __ptext61 069B  
                                                __ptext53 0531  
                                                __ptext45 03E2  
                                                __ptext37 0292  
                                                __ptext29 066F  
                                                __ptext62 069E  
                                                __ptext54 0544  
                                                __ptext46 04E5  
                                                __ptext38 068F  
                                                __ptext71 0615  
                                                __ptext63 03C6  
                                                __ptext55 0557  
                                                __ptext47 04F8  
                                                __ptext39 0641  
                                                __ptext72 05C5  
                                                __ptext64 06A1  
                                                __ptext56 056A  
                                                __ptext48 050B  
                                                __ptext73 03A9  
                                                __ptext65 06A4  
                                                __ptext57 05B7  
                                                __ptext49 06AA  
                                                __ptext74 06AE  
                                                __ptext66 06A7  
                                                __ptext58 0343  
                                                __ptext75 0474  
                                                __ptext67 0446  
                                                __ptext59 057D  
                                                __ptext76 048B  
                                                __ptext68 045D  
                                                __ptext77 04A2  
                                                __ptext69 04B9  
                                                __ptext78 04CF  
                                            _SSP1CON1bits 0215  
                                            _SSP1CON2bits 0216  
                            ??_IOCBF7_SetInterruptHandler 0076  
                                              _IOCBF7_ISR 05C5  
                                _I2C1_CallbackReturnReset 06AA  
                                           __size_of_main 012F  
                                             ?_I2C1_DO_RX 0070  
                                             ?_I2C1_DO_TX 0070  
                             __end_of_I2C1_MasterClearIrq 06AA  
                            __end_of_I2C1_DO_RX_NACK_STOP 0660  
                                             ?_I2C1_Close 0070  
                                                int$flags 007E  
                         __end_of_I2C1_DO_RX_NACK_RESTART 065B  
                                I2C1_MasterOperation@read 004A  
                            __end_ofi1_DELAY_milliseconds 04E5  
                      __end_of_INTERRUPT_InterruptManager 0013  
                              _INTERRUPT_InterruptManager 0004  
                                                main@data 0052  
                                            _SSP1STATbits 0214  
                          __size_of_I2C1_DO_SEND_ADR_READ 0009  
                           __end_of_I2C1_DO_SEND_ADR_READ 0615  
                                            _I2C1_DO_IDLE 0679  
                                            _I2C1_DO_RCEN 062E  
   __end_of_wr2RegCompleteHandler@i2c_simple_master$F1282 057D  
  __size_of_wr2RegCompleteHandler@i2c_simple_master$F1282 0013  
   __end_of_wr1RegCompleteHandler@i2c_simple_master$F1258 051E  
  __size_of_wr1RegCompleteHandler@i2c_simple_master$F1258 0013  
          ?_wr2RegCompleteHandler@i2c_simple_master$F1282 0042  
          ?_wr1RegCompleteHandler@i2c_simple_master$F1258 0042  
         ??_wr2RegCompleteHandler@i2c_simple_master$F1282 0078  
         ??_wr1RegCompleteHandler@i2c_simple_master$F1258 0078  
           _wr2RegCompleteHandler@i2c_simple_master$F1282 056A  
           _wr1RegCompleteHandler@i2c_simple_master$F1258 050B  
   __end_of_rd1RegCompleteHandler@i2c_simple_master$F1268 050B  
  __size_of_rd1RegCompleteHandler@i2c_simple_master$F1268 0013  
   __end_of_rd2RegCompleteHandler@i2c_simple_master$F1276 04F8  
  __size_of_rd2RegCompleteHandler@i2c_simple_master$F1276 0013  
          ?_rd2RegCompleteHandler@i2c_simple_master$F1276 0042  
          ?_rd1RegCompleteHandler@i2c_simple_master$F1268 0042  
         ??_rd2RegCompleteHandler@i2c_simple_master$F1276 0078  
         ??_rd1RegCompleteHandler@i2c_simple_master$F1268 0078  
           _rd2RegCompleteHandler@i2c_simple_master$F1276 04E5  
           _rd1RegCompleteHandler@i2c_simple_master$F1268 04F8  
 __end_of_rdBlkRegCompleteHandler@i2c_simple_master$F1288 03FC  
__size_of_rdBlkRegCompleteHandler@i2c_simple_master$F1288 001A  
        ?_rdBlkRegCompleteHandler@i2c_simple_master$F1288 0042  
       ??_rdBlkRegCompleteHandler@i2c_simple_master$F1288 0078  
         _rdBlkRegCompleteHandler@i2c_simple_master$F1288 03E2  
                     __size_of_IOCBF7_SetInterruptHandler 0005  
                                   ?i1_PWM4_LoadDutyValue 0070  
                             __end_of_I2C1_MasterSendNack 068F  
                                              _INTCONbits 000B  
                          I2C1_SetAddressNackCallback@ptr 0040  
                                    _I2C1_MasterGetRxData 0692  
                                   _I2C1_MasterSendTxData 067E  
                                 __size_of_WDT_Initialize 0004  
                                                intlevel1 0000  
                                __end_of_I2C1_MasterClose 06A7  
                                  _I2C1_Read1ByteRegister 0227  
                            EPWM2_LoadDutyValue@dutyValue 0074  
                                 ?_PIN_MANAGER_Initialize 0070  
                           I2C1_Read1ByteRegister@address 004E  
                                __end_of_I2C1_MasterStart 06A1  
                                __end_of_I2C1_MasterWrite 0651  
                                        ??_I2C1_DO_RX_ACK 0074  
                                 _I2C1_CallbackReturnStop 06AC  
                                    _I2C1_DO_ADDRESS_NACK 02C2  
                                  ?_I2C1_MasterDisableIrq 0070  
                                    __size_of_I2C1_Poller 000D  
                                __size_of_I2C1_MasterOpen 000D  
                                __size_of_I2C1_MasterStop 0003  
                                __size_of_I2C1_Initialize 0009  
                                           __pstringtext1 036A  
                                __end_of_I2C1_SetCallback 036A  
                                     __size_of_I2C1_DO_RX 0047  
                                     __size_of_I2C1_DO_TX 0056  
                                         ??_I2C1_DO_RESET 0074  
                                    _I2C1_MasterOperation 038A  
                                     __size_of_I2C1_Close 001C  
                                   ?_I2C1_MasterGetRxData 0070  
                                     _EPWM1_LoadDutyValue 045D  
                                             ?_IOCBF7_ISR 0070  
                          __end_of_PIN_MANAGER_Initialize 0343  
                          __size_of_rd1RegCompleteHandler 0013  
                           __end_of_rd1RegCompleteHandler 056A  
                                      __size_of_I2C1_Open 003A  
                                         _PIN_MANAGER_IOC 0615  
                          __size_of_wr1RegCompleteHandler 0013  
                           __end_of_wr1RegCompleteHandler 0544  
                               __size_of_I2C1_DO_TX_EMPTY 0030  
                                   ?_I2C1_DO_ADDRESS_NACK 0070  
                                __end_of_EPWM1_Initialize 05A9  
                                    ?_EPWM1_LoadDutyValue 0074  
